
STM32ProjectForLab5.elf:     file format elf32-littlearm

Sections:
Idx Name          Size      VMA       LMA       File off  Algn
  0 .isr_vector   0000010c  08000000  08000000  00010000  2**0
                  CONTENTS, ALLOC, LOAD, READONLY, DATA
  1 .text         000019d0  0800010c  0800010c  0001010c  2**2
                  CONTENTS, ALLOC, LOAD, READONLY, CODE
  2 .rodata       00000024  08001adc  08001adc  00011adc  2**2
                  CONTENTS, ALLOC, LOAD, READONLY, DATA
  3 .ARM.extab    00000000  08001b00  08001b00  0002000c  2**0
                  CONTENTS
  4 .ARM          00000000  08001b00  08001b00  0002000c  2**0
                  CONTENTS
  5 .preinit_array 00000000  08001b00  08001b00  0002000c  2**0
                  CONTENTS, ALLOC, LOAD, DATA
  6 .init_array   00000004  08001b00  08001b00  00011b00  2**2
                  CONTENTS, ALLOC, LOAD, DATA
  7 .fini_array   00000004  08001b04  08001b04  00011b04  2**2
                  CONTENTS, ALLOC, LOAD, DATA
  8 .data         0000000c  20000000  08001b08  00020000  2**2
                  CONTENTS, ALLOC, LOAD, DATA
  9 .bss          00000068  2000000c  08001b14  0002000c  2**2
                  ALLOC
 10 ._user_heap_stack 00000604  20000074  08001b14  00020074  2**0
                  ALLOC
 11 .ARM.attributes 00000029  00000000  00000000  0002000c  2**0
                  CONTENTS, READONLY
 12 .debug_info   00007fff  00000000  00000000  00020035  2**0
                  CONTENTS, READONLY, DEBUGGING, OCTETS
 13 .debug_abbrev 000014f3  00000000  00000000  00028034  2**0
                  CONTENTS, READONLY, DEBUGGING, OCTETS
 14 .debug_aranges 00000930  00000000  00000000  00029528  2**3
                  CONTENTS, READONLY, DEBUGGING, OCTETS
 15 .debug_ranges 00000888  00000000  00000000  00029e58  2**3
                  CONTENTS, READONLY, DEBUGGING, OCTETS
 16 .debug_macro  000161c7  00000000  00000000  0002a6e0  2**0
                  CONTENTS, READONLY, DEBUGGING, OCTETS
 17 .debug_line   000092a4  00000000  00000000  000408a7  2**0
                  CONTENTS, READONLY, DEBUGGING, OCTETS
 18 .debug_str    00081c49  00000000  00000000  00049b4b  2**0
                  CONTENTS, READONLY, DEBUGGING, OCTETS
 19 .comment      00000050  00000000  00000000  000cb794  2**0
                  CONTENTS, READONLY
 20 .debug_frame  000025cc  00000000  00000000  000cb7e4  2**2
                  CONTENTS, READONLY, DEBUGGING, OCTETS

Disassembly of section .text:

0800010c <__do_global_dtors_aux>:
 800010c:	b510      	push	{r4, lr}
 800010e:	4c05      	ldr	r4, [pc, #20]	; (8000124 <__do_global_dtors_aux+0x18>)
 8000110:	7823      	ldrb	r3, [r4, #0]
 8000112:	b933      	cbnz	r3, 8000122 <__do_global_dtors_aux+0x16>
 8000114:	4b04      	ldr	r3, [pc, #16]	; (8000128 <__do_global_dtors_aux+0x1c>)
 8000116:	b113      	cbz	r3, 800011e <__do_global_dtors_aux+0x12>
 8000118:	4804      	ldr	r0, [pc, #16]	; (800012c <__do_global_dtors_aux+0x20>)
 800011a:	f3af 8000 	nop.w
 800011e:	2301      	movs	r3, #1
 8000120:	7023      	strb	r3, [r4, #0]
 8000122:	bd10      	pop	{r4, pc}
 8000124:	2000000c 	.word	0x2000000c
 8000128:	00000000 	.word	0x00000000
 800012c:	08001ac4 	.word	0x08001ac4

08000130 <frame_dummy>:
 8000130:	b508      	push	{r3, lr}
 8000132:	4b03      	ldr	r3, [pc, #12]	; (8000140 <frame_dummy+0x10>)
 8000134:	b11b      	cbz	r3, 800013e <frame_dummy+0xe>
 8000136:	4903      	ldr	r1, [pc, #12]	; (8000144 <frame_dummy+0x14>)
 8000138:	4803      	ldr	r0, [pc, #12]	; (8000148 <frame_dummy+0x18>)
 800013a:	f3af 8000 	nop.w
 800013e:	bd08      	pop	{r3, pc}
 8000140:	00000000 	.word	0x00000000
 8000144:	20000010 	.word	0x20000010
 8000148:	08001ac4 	.word	0x08001ac4

0800014c <main>:
/**
  * @brief  The application entry point.
  * @retval int
  */
int main(void)
{
 800014c:	b580      	push	{r7, lr}
 800014e:	af00      	add	r7, sp, #0
  /* USER CODE END 1 */

  /* MCU Configuration--------------------------------------------------------*/

  /* Reset of all peripherals, Initializes the Flash interface and the Systick. */
  HAL_Init();
 8000150:	f000 f984 	bl	800045c <HAL_Init>
  /* USER CODE BEGIN Init */

  /* USER CODE END Init */

  /* Configure the system clock */
  SystemClock_Config();
 8000154:	f000 f814 	bl	8000180 <SystemClock_Config>
  /* USER CODE BEGIN SysInit */

  /* USER CODE END SysInit */

  /* Initialize all configured peripherals */
  MX_GPIO_Init();
 8000158:	f000 f89c 	bl	8000294 <MX_GPIO_Init>
  MX_TIM2_Init();
 800015c:	f000 f84c 	bl	80001f8 <MX_TIM2_Init>
  /* USER CODE BEGIN 2 */
  HAL_TIM_Base_Start_IT(& htim2);
 8000160:	4805      	ldr	r0, [pc, #20]	; (8000178 <main+0x2c>)
 8000162:	f001 f8eb 	bl	800133c <HAL_TIM_Base_Start_IT>

  /* Infinite loop */
  /* USER CODE BEGIN WHILE */
  while (1)
  {
	  HAL_GPIO_TogglePin(LED_RED_GPIO_Port, LED_RED_Pin);
 8000166:	2120      	movs	r1, #32
 8000168:	4804      	ldr	r0, [pc, #16]	; (800017c <main+0x30>)
 800016a:	f000 fc9f 	bl	8000aac <HAL_GPIO_TogglePin>
	  HAL_Delay(1000);
 800016e:	f44f 707a 	mov.w	r0, #1000	; 0x3e8
 8000172:	f000 f9d5 	bl	8000520 <HAL_Delay>
	  HAL_GPIO_TogglePin(LED_RED_GPIO_Port, LED_RED_Pin);
 8000176:	e7f6      	b.n	8000166 <main+0x1a>
 8000178:	20000028 	.word	0x20000028
 800017c:	40010800 	.word	0x40010800

08000180 <SystemClock_Config>:
/**
  * @brief System Clock Configuration
  * @retval None
  */
void SystemClock_Config(void)
{
 8000180:	b580      	push	{r7, lr}
 8000182:	b090      	sub	sp, #64	; 0x40
 8000184:	af00      	add	r7, sp, #0
  RCC_OscInitTypeDef RCC_OscInitStruct = {0};
 8000186:	f107 0318 	add.w	r3, r7, #24
 800018a:	2228      	movs	r2, #40	; 0x28
 800018c:	2100      	movs	r1, #0
 800018e:	4618      	mov	r0, r3
 8000190:	f001 fc90 	bl	8001ab4 <memset>
  RCC_ClkInitTypeDef RCC_ClkInitStruct = {0};
 8000194:	1d3b      	adds	r3, r7, #4
 8000196:	2200      	movs	r2, #0
 8000198:	601a      	str	r2, [r3, #0]
 800019a:	605a      	str	r2, [r3, #4]
 800019c:	609a      	str	r2, [r3, #8]
 800019e:	60da      	str	r2, [r3, #12]
 80001a0:	611a      	str	r2, [r3, #16]

  /** Initializes the RCC Oscillators according to the specified parameters
  * in the RCC_OscInitTypeDef structure.
  */
  RCC_OscInitStruct.OscillatorType = RCC_OSCILLATORTYPE_HSI;
 80001a2:	2302      	movs	r3, #2
 80001a4:	61bb      	str	r3, [r7, #24]
  RCC_OscInitStruct.HSIState = RCC_HSI_ON;
 80001a6:	2301      	movs	r3, #1
 80001a8:	62bb      	str	r3, [r7, #40]	; 0x28
  RCC_OscInitStruct.HSICalibrationValue = RCC_HSICALIBRATION_DEFAULT;
 80001aa:	2310      	movs	r3, #16
 80001ac:	62fb      	str	r3, [r7, #44]	; 0x2c
  RCC_OscInitStruct.PLL.PLLState = RCC_PLL_NONE;
 80001ae:	2300      	movs	r3, #0
 80001b0:	637b      	str	r3, [r7, #52]	; 0x34
  if (HAL_RCC_OscConfig(&RCC_OscInitStruct) != HAL_OK)
 80001b2:	f107 0318 	add.w	r3, r7, #24
 80001b6:	4618      	mov	r0, r3
 80001b8:	f000 fc92 	bl	8000ae0 <HAL_RCC_OscConfig>
 80001bc:	4603      	mov	r3, r0
 80001be:	2b00      	cmp	r3, #0
 80001c0:	d001      	beq.n	80001c6 <SystemClock_Config+0x46>
  {
    Error_Handler();
 80001c2:	f000 f8a2 	bl	800030a <Error_Handler>
  }

  /** Initializes the CPU, AHB and APB buses clocks
  */
  RCC_ClkInitStruct.ClockType = RCC_CLOCKTYPE_HCLK|RCC_CLOCKTYPE_SYSCLK
 80001c6:	230f      	movs	r3, #15
 80001c8:	607b      	str	r3, [r7, #4]
                              |RCC_CLOCKTYPE_PCLK1|RCC_CLOCKTYPE_PCLK2;
  RCC_ClkInitStruct.SYSCLKSource = RCC_SYSCLKSOURCE_HSI;
 80001ca:	2300      	movs	r3, #0
 80001cc:	60bb      	str	r3, [r7, #8]
  RCC_ClkInitStruct.AHBCLKDivider = RCC_SYSCLK_DIV1;
 80001ce:	2300      	movs	r3, #0
 80001d0:	60fb      	str	r3, [r7, #12]
  RCC_ClkInitStruct.APB1CLKDivider = RCC_HCLK_DIV1;
 80001d2:	2300      	movs	r3, #0
 80001d4:	613b      	str	r3, [r7, #16]
  RCC_ClkInitStruct.APB2CLKDivider = RCC_HCLK_DIV1;
 80001d6:	2300      	movs	r3, #0
 80001d8:	617b      	str	r3, [r7, #20]

  if (HAL_RCC_ClockConfig(&RCC_ClkInitStruct, FLASH_LATENCY_0) != HAL_OK)
 80001da:	1d3b      	adds	r3, r7, #4
 80001dc:	2100      	movs	r1, #0
 80001de:	4618      	mov	r0, r3
 80001e0:	f000 ff00 	bl	8000fe4 <HAL_RCC_ClockConfig>
 80001e4:	4603      	mov	r3, r0
 80001e6:	2b00      	cmp	r3, #0
 80001e8:	d001      	beq.n	80001ee <SystemClock_Config+0x6e>
  {
    Error_Handler();
 80001ea:	f000 f88e 	bl	800030a <Error_Handler>
  }
}
 80001ee:	bf00      	nop
 80001f0:	3740      	adds	r7, #64	; 0x40
 80001f2:	46bd      	mov	sp, r7
 80001f4:	bd80      	pop	{r7, pc}
	...

080001f8 <MX_TIM2_Init>:
  * @brief TIM2 Initialization Function
  * @param None
  * @retval None
  */
static void MX_TIM2_Init(void)
{
 80001f8:	b580      	push	{r7, lr}
 80001fa:	b086      	sub	sp, #24
 80001fc:	af00      	add	r7, sp, #0

  /* USER CODE BEGIN TIM2_Init 0 */

  /* USER CODE END TIM2_Init 0 */

  TIM_ClockConfigTypeDef sClockSourceConfig = {0};
 80001fe:	f107 0308 	add.w	r3, r7, #8
 8000202:	2200      	movs	r2, #0
 8000204:	601a      	str	r2, [r3, #0]
 8000206:	605a      	str	r2, [r3, #4]
 8000208:	609a      	str	r2, [r3, #8]
 800020a:	60da      	str	r2, [r3, #12]
  TIM_MasterConfigTypeDef sMasterConfig = {0};
 800020c:	463b      	mov	r3, r7
 800020e:	2200      	movs	r2, #0
 8000210:	601a      	str	r2, [r3, #0]
 8000212:	605a      	str	r2, [r3, #4]

  /* USER CODE BEGIN TIM2_Init 1 */

  /* USER CODE END TIM2_Init 1 */
  htim2.Instance = TIM2;
 8000214:	4b1e      	ldr	r3, [pc, #120]	; (8000290 <MX_TIM2_Init+0x98>)
 8000216:	f04f 4280 	mov.w	r2, #1073741824	; 0x40000000
 800021a:	601a      	str	r2, [r3, #0]
  htim2.Init.Prescaler = 7999;
 800021c:	4b1c      	ldr	r3, [pc, #112]	; (8000290 <MX_TIM2_Init+0x98>)
 800021e:	f641 723f 	movw	r2, #7999	; 0x1f3f
 8000222:	605a      	str	r2, [r3, #4]
  htim2.Init.CounterMode = TIM_COUNTERMODE_UP;
 8000224:	4b1a      	ldr	r3, [pc, #104]	; (8000290 <MX_TIM2_Init+0x98>)
 8000226:	2200      	movs	r2, #0
 8000228:	609a      	str	r2, [r3, #8]
  htim2.Init.Period = 65535;
 800022a:	4b19      	ldr	r3, [pc, #100]	; (8000290 <MX_TIM2_Init+0x98>)
 800022c:	f64f 72ff 	movw	r2, #65535	; 0xffff
 8000230:	60da      	str	r2, [r3, #12]
  htim2.Init.ClockDivision = TIM_CLOCKDIVISION_DIV1;
 8000232:	4b17      	ldr	r3, [pc, #92]	; (8000290 <MX_TIM2_Init+0x98>)
 8000234:	2200      	movs	r2, #0
 8000236:	611a      	str	r2, [r3, #16]
  htim2.Init.AutoReloadPreload = TIM_AUTORELOAD_PRELOAD_DISABLE;
 8000238:	4b15      	ldr	r3, [pc, #84]	; (8000290 <MX_TIM2_Init+0x98>)
 800023a:	2200      	movs	r2, #0
 800023c:	619a      	str	r2, [r3, #24]
  if (HAL_TIM_Base_Init(&htim2) != HAL_OK)
 800023e:	4814      	ldr	r0, [pc, #80]	; (8000290 <MX_TIM2_Init+0x98>)
 8000240:	f001 f82c 	bl	800129c <HAL_TIM_Base_Init>
 8000244:	4603      	mov	r3, r0
 8000246:	2b00      	cmp	r3, #0
 8000248:	d001      	beq.n	800024e <MX_TIM2_Init+0x56>
  {
    Error_Handler();
 800024a:	f000 f85e 	bl	800030a <Error_Handler>
  }
  sClockSourceConfig.ClockSource = TIM_CLOCKSOURCE_INTERNAL;
 800024e:	f44f 5380 	mov.w	r3, #4096	; 0x1000
 8000252:	60bb      	str	r3, [r7, #8]
  if (HAL_TIM_ConfigClockSource(&htim2, &sClockSourceConfig) != HAL_OK)
 8000254:	f107 0308 	add.w	r3, r7, #8
 8000258:	4619      	mov	r1, r3
 800025a:	480d      	ldr	r0, [pc, #52]	; (8000290 <MX_TIM2_Init+0x98>)
 800025c:	f001 f9c2 	bl	80015e4 <HAL_TIM_ConfigClockSource>
 8000260:	4603      	mov	r3, r0
 8000262:	2b00      	cmp	r3, #0
 8000264:	d001      	beq.n	800026a <MX_TIM2_Init+0x72>
  {
    Error_Handler();
 8000266:	f000 f850 	bl	800030a <Error_Handler>
  }
  sMasterConfig.MasterOutputTrigger = TIM_TRGO_RESET;
 800026a:	2300      	movs	r3, #0
 800026c:	603b      	str	r3, [r7, #0]
  sMasterConfig.MasterSlaveMode = TIM_MASTERSLAVEMODE_DISABLE;
 800026e:	2300      	movs	r3, #0
 8000270:	607b      	str	r3, [r7, #4]
  if (HAL_TIMEx_MasterConfigSynchronization(&htim2, &sMasterConfig) != HAL_OK)
 8000272:	463b      	mov	r3, r7
 8000274:	4619      	mov	r1, r3
 8000276:	4806      	ldr	r0, [pc, #24]	; (8000290 <MX_TIM2_Init+0x98>)
 8000278:	f001 fb8e 	bl	8001998 <HAL_TIMEx_MasterConfigSynchronization>
 800027c:	4603      	mov	r3, r0
 800027e:	2b00      	cmp	r3, #0
 8000280:	d001      	beq.n	8000286 <MX_TIM2_Init+0x8e>
  {
    Error_Handler();
 8000282:	f000 f842 	bl	800030a <Error_Handler>
  }
  /* USER CODE BEGIN TIM2_Init 2 */

  /* USER CODE END TIM2_Init 2 */

}
 8000286:	bf00      	nop
 8000288:	3718      	adds	r7, #24
 800028a:	46bd      	mov	sp, r7
 800028c:	bd80      	pop	{r7, pc}
 800028e:	bf00      	nop
 8000290:	20000028 	.word	0x20000028

08000294 <MX_GPIO_Init>:
  * @brief GPIO Initialization Function
  * @param None
  * @retval None
  */
static void MX_GPIO_Init(void)
{
 8000294:	b580      	push	{r7, lr}
 8000296:	b086      	sub	sp, #24
 8000298:	af00      	add	r7, sp, #0
  GPIO_InitTypeDef GPIO_InitStruct = {0};
 800029a:	f107 0308 	add.w	r3, r7, #8
 800029e:	2200      	movs	r2, #0
 80002a0:	601a      	str	r2, [r3, #0]
 80002a2:	605a      	str	r2, [r3, #4]
 80002a4:	609a      	str	r2, [r3, #8]
 80002a6:	60da      	str	r2, [r3, #12]
/* USER CODE BEGIN MX_GPIO_Init_1 */
/* USER CODE END MX_GPIO_Init_1 */

  /* GPIO Ports Clock Enable */
  __HAL_RCC_GPIOA_CLK_ENABLE();
 80002a8:	4b11      	ldr	r3, [pc, #68]	; (80002f0 <MX_GPIO_Init+0x5c>)
 80002aa:	699b      	ldr	r3, [r3, #24]
 80002ac:	4a10      	ldr	r2, [pc, #64]	; (80002f0 <MX_GPIO_Init+0x5c>)
 80002ae:	f043 0304 	orr.w	r3, r3, #4
 80002b2:	6193      	str	r3, [r2, #24]
 80002b4:	4b0e      	ldr	r3, [pc, #56]	; (80002f0 <MX_GPIO_Init+0x5c>)
 80002b6:	699b      	ldr	r3, [r3, #24]
 80002b8:	f003 0304 	and.w	r3, r3, #4
 80002bc:	607b      	str	r3, [r7, #4]
 80002be:	687b      	ldr	r3, [r7, #4]

  /*Configure GPIO pin Output Level */
  HAL_GPIO_WritePin(LED_RED_GPIO_Port, LED_RED_Pin, GPIO_PIN_RESET);
 80002c0:	2200      	movs	r2, #0
 80002c2:	2120      	movs	r1, #32
 80002c4:	480b      	ldr	r0, [pc, #44]	; (80002f4 <MX_GPIO_Init+0x60>)
 80002c6:	f000 fbd9 	bl	8000a7c <HAL_GPIO_WritePin>

  /*Configure GPIO pin : LED_RED_Pin */
  GPIO_InitStruct.Pin = LED_RED_Pin;
 80002ca:	2320      	movs	r3, #32
 80002cc:	60bb      	str	r3, [r7, #8]
  GPIO_InitStruct.Mode = GPIO_MODE_OUTPUT_PP;
 80002ce:	2301      	movs	r3, #1
 80002d0:	60fb      	str	r3, [r7, #12]
  GPIO_InitStruct.Pull = GPIO_NOPULL;
 80002d2:	2300      	movs	r3, #0
 80002d4:	613b      	str	r3, [r7, #16]
  GPIO_InitStruct.Speed = GPIO_SPEED_FREQ_LOW;
 80002d6:	2302      	movs	r3, #2
 80002d8:	617b      	str	r3, [r7, #20]
  HAL_GPIO_Init(LED_RED_GPIO_Port, &GPIO_InitStruct);
 80002da:	f107 0308 	add.w	r3, r7, #8
 80002de:	4619      	mov	r1, r3
 80002e0:	4804      	ldr	r0, [pc, #16]	; (80002f4 <MX_GPIO_Init+0x60>)
 80002e2:	f000 fa4f 	bl	8000784 <HAL_GPIO_Init>

/* USER CODE BEGIN MX_GPIO_Init_2 */
/* USER CODE END MX_GPIO_Init_2 */
}
 80002e6:	bf00      	nop
 80002e8:	3718      	adds	r7, #24
 80002ea:	46bd      	mov	sp, r7
 80002ec:	bd80      	pop	{r7, pc}
 80002ee:	bf00      	nop
 80002f0:	40021000 	.word	0x40021000
 80002f4:	40010800 	.word	0x40010800

080002f8 <HAL_TIM_PeriodElapsedCallback>:

/* USER CODE BEGIN 4 */
void HAL_TIM_PeriodElapsedCallback ( TIM_HandleTypeDef * htim )
{
 80002f8:	b480      	push	{r7}
 80002fa:	b083      	sub	sp, #12
 80002fc:	af00      	add	r7, sp, #0
 80002fe:	6078      	str	r0, [r7, #4]

}
 8000300:	bf00      	nop
 8000302:	370c      	adds	r7, #12
 8000304:	46bd      	mov	sp, r7
 8000306:	bc80      	pop	{r7}
 8000308:	4770      	bx	lr

0800030a <Error_Handler>:
/**
  * @brief  This function is executed in case of error occurrence.
  * @retval None
  */
void Error_Handler(void)
{
 800030a:	b480      	push	{r7}
 800030c:	af00      	add	r7, sp, #0
  \details Disables IRQ interrupts by setting the I-bit in the CPSR.
           Can only be executed in Privileged modes.
 */
__STATIC_FORCEINLINE void __disable_irq(void)
{
  __ASM volatile ("cpsid i" : : : "memory");
 800030e:	b672      	cpsid	i
}
 8000310:	bf00      	nop
  /* USER CODE BEGIN Error_Handler_Debug */
  /* User can add his own implementation to report the HAL error return state */
  __disable_irq();
  while (1)
 8000312:	e7fe      	b.n	8000312 <Error_Handler+0x8>

08000314 <HAL_MspInit>:
/* USER CODE END 0 */
/**
  * Initializes the Global MSP.
  */
void HAL_MspInit(void)
{
 8000314:	b480      	push	{r7}
 8000316:	b083      	sub	sp, #12
 8000318:	af00      	add	r7, sp, #0
  /* USER CODE BEGIN MspInit 0 */

  /* USER CODE END MspInit 0 */

  __HAL_RCC_AFIO_CLK_ENABLE();
 800031a:	4b0e      	ldr	r3, [pc, #56]	; (8000354 <HAL_MspInit+0x40>)
 800031c:	699b      	ldr	r3, [r3, #24]
 800031e:	4a0d      	ldr	r2, [pc, #52]	; (8000354 <HAL_MspInit+0x40>)
 8000320:	f043 0301 	orr.w	r3, r3, #1
 8000324:	6193      	str	r3, [r2, #24]
 8000326:	4b0b      	ldr	r3, [pc, #44]	; (8000354 <HAL_MspInit+0x40>)
 8000328:	699b      	ldr	r3, [r3, #24]
 800032a:	f003 0301 	and.w	r3, r3, #1
 800032e:	607b      	str	r3, [r7, #4]
 8000330:	687b      	ldr	r3, [r7, #4]
  __HAL_RCC_PWR_CLK_ENABLE();
 8000332:	4b08      	ldr	r3, [pc, #32]	; (8000354 <HAL_MspInit+0x40>)
 8000334:	69db      	ldr	r3, [r3, #28]
 8000336:	4a07      	ldr	r2, [pc, #28]	; (8000354 <HAL_MspInit+0x40>)
 8000338:	f043 5380 	orr.w	r3, r3, #268435456	; 0x10000000
 800033c:	61d3      	str	r3, [r2, #28]
 800033e:	4b05      	ldr	r3, [pc, #20]	; (8000354 <HAL_MspInit+0x40>)
 8000340:	69db      	ldr	r3, [r3, #28]
 8000342:	f003 5380 	and.w	r3, r3, #268435456	; 0x10000000
 8000346:	603b      	str	r3, [r7, #0]
 8000348:	683b      	ldr	r3, [r7, #0]
  /* System interrupt init*/

  /* USER CODE BEGIN MspInit 1 */

  /* USER CODE END MspInit 1 */
}
 800034a:	bf00      	nop
 800034c:	370c      	adds	r7, #12
 800034e:	46bd      	mov	sp, r7
 8000350:	bc80      	pop	{r7}
 8000352:	4770      	bx	lr
 8000354:	40021000 	.word	0x40021000

08000358 <HAL_TIM_Base_MspInit>:
* This function configures the hardware resources used in this example
* @param htim_base: TIM_Base handle pointer
* @retval None
*/
void HAL_TIM_Base_MspInit(TIM_HandleTypeDef* htim_base)
{
 8000358:	b580      	push	{r7, lr}
 800035a:	b084      	sub	sp, #16
 800035c:	af00      	add	r7, sp, #0
 800035e:	6078      	str	r0, [r7, #4]
  if(htim_base->Instance==TIM2)
 8000360:	687b      	ldr	r3, [r7, #4]
 8000362:	681b      	ldr	r3, [r3, #0]
 8000364:	f1b3 4f80 	cmp.w	r3, #1073741824	; 0x40000000
 8000368:	d113      	bne.n	8000392 <HAL_TIM_Base_MspInit+0x3a>
  {
  /* USER CODE BEGIN TIM2_MspInit 0 */

  /* USER CODE END TIM2_MspInit 0 */
    /* Peripheral clock enable */
    __HAL_RCC_TIM2_CLK_ENABLE();
 800036a:	4b0c      	ldr	r3, [pc, #48]	; (800039c <HAL_TIM_Base_MspInit+0x44>)
 800036c:	69db      	ldr	r3, [r3, #28]
 800036e:	4a0b      	ldr	r2, [pc, #44]	; (800039c <HAL_TIM_Base_MspInit+0x44>)
 8000370:	f043 0301 	orr.w	r3, r3, #1
 8000374:	61d3      	str	r3, [r2, #28]
 8000376:	4b09      	ldr	r3, [pc, #36]	; (800039c <HAL_TIM_Base_MspInit+0x44>)
 8000378:	69db      	ldr	r3, [r3, #28]
 800037a:	f003 0301 	and.w	r3, r3, #1
 800037e:	60fb      	str	r3, [r7, #12]
 8000380:	68fb      	ldr	r3, [r7, #12]
    /* TIM2 interrupt Init */
    HAL_NVIC_SetPriority(TIM2_IRQn, 0, 0);
 8000382:	2200      	movs	r2, #0
 8000384:	2100      	movs	r1, #0
 8000386:	201c      	movs	r0, #28
 8000388:	f000 f9c5 	bl	8000716 <HAL_NVIC_SetPriority>
    HAL_NVIC_EnableIRQ(TIM2_IRQn);
 800038c:	201c      	movs	r0, #28
 800038e:	f000 f9de 	bl	800074e <HAL_NVIC_EnableIRQ>
  /* USER CODE BEGIN TIM2_MspInit 1 */

  /* USER CODE END TIM2_MspInit 1 */
  }

}
 8000392:	bf00      	nop
 8000394:	3710      	adds	r7, #16
 8000396:	46bd      	mov	sp, r7
 8000398:	bd80      	pop	{r7, pc}
 800039a:	bf00      	nop
 800039c:	40021000 	.word	0x40021000

080003a0 <NMI_Handler>:
/******************************************************************************/
/**
  * @brief This function handles Non maskable interrupt.
  */
void NMI_Handler(void)
{
 80003a0:	b480      	push	{r7}
 80003a2:	af00      	add	r7, sp, #0
  /* USER CODE BEGIN NonMaskableInt_IRQn 0 */

  /* USER CODE END NonMaskableInt_IRQn 0 */
  /* USER CODE BEGIN NonMaskableInt_IRQn 1 */
  while (1)
 80003a4:	e7fe      	b.n	80003a4 <NMI_Handler+0x4>

080003a6 <HardFault_Handler>:

/**
  * @brief This function handles Hard fault interrupt.
  */
void HardFault_Handler(void)
{
 80003a6:	b480      	push	{r7}
 80003a8:	af00      	add	r7, sp, #0
  /* USER CODE BEGIN HardFault_IRQn 0 */

  /* USER CODE END HardFault_IRQn 0 */
  while (1)
 80003aa:	e7fe      	b.n	80003aa <HardFault_Handler+0x4>

080003ac <MemManage_Handler>:

/**
  * @brief This function handles Memory management fault.
  */
void MemManage_Handler(void)
{
 80003ac:	b480      	push	{r7}
 80003ae:	af00      	add	r7, sp, #0
  /* USER CODE BEGIN MemoryManagement_IRQn 0 */

  /* USER CODE END MemoryManagement_IRQn 0 */
  while (1)
 80003b0:	e7fe      	b.n	80003b0 <MemManage_Handler+0x4>

080003b2 <BusFault_Handler>:

/**
  * @brief This function handles Prefetch fault, memory access fault.
  */
void BusFault_Handler(void)
{
 80003b2:	b480      	push	{r7}
 80003b4:	af00      	add	r7, sp, #0
  /* USER CODE BEGIN BusFault_IRQn 0 */

  /* USER CODE END BusFault_IRQn 0 */
  while (1)
 80003b6:	e7fe      	b.n	80003b6 <BusFault_Handler+0x4>

080003b8 <UsageFault_Handler>:

/**
  * @brief This function handles Undefined instruction or illegal state.
  */
void UsageFault_Handler(void)
{
 80003b8:	b480      	push	{r7}
 80003ba:	af00      	add	r7, sp, #0
  /* USER CODE BEGIN UsageFault_IRQn 0 */

  /* USER CODE END UsageFault_IRQn 0 */
  while (1)
 80003bc:	e7fe      	b.n	80003bc <UsageFault_Handler+0x4>

080003be <SVC_Handler>:

/**
  * @brief This function handles System service call via SWI instruction.
  */
void SVC_Handler(void)
{
 80003be:	b480      	push	{r7}
 80003c0:	af00      	add	r7, sp, #0

  /* USER CODE END SVCall_IRQn 0 */
  /* USER CODE BEGIN SVCall_IRQn 1 */

  /* USER CODE END SVCall_IRQn 1 */
}
 80003c2:	bf00      	nop
 80003c4:	46bd      	mov	sp, r7
 80003c6:	bc80      	pop	{r7}
 80003c8:	4770      	bx	lr

080003ca <DebugMon_Handler>:

/**
  * @brief This function handles Debug monitor.
  */
void DebugMon_Handler(void)
{
 80003ca:	b480      	push	{r7}
 80003cc:	af00      	add	r7, sp, #0

  /* USER CODE END DebugMonitor_IRQn 0 */
  /* USER CODE BEGIN DebugMonitor_IRQn 1 */

  /* USER CODE END DebugMonitor_IRQn 1 */
}
 80003ce:	bf00      	nop
 80003d0:	46bd      	mov	sp, r7
 80003d2:	bc80      	pop	{r7}
 80003d4:	4770      	bx	lr

080003d6 <PendSV_Handler>:

/**
  * @brief This function handles Pendable request for system service.
  */
void PendSV_Handler(void)
{
 80003d6:	b480      	push	{r7}
 80003d8:	af00      	add	r7, sp, #0

  /* USER CODE END PendSV_IRQn 0 */
  /* USER CODE BEGIN PendSV_IRQn 1 */

  /* USER CODE END PendSV_IRQn 1 */
}
 80003da:	bf00      	nop
 80003dc:	46bd      	mov	sp, r7
 80003de:	bc80      	pop	{r7}
 80003e0:	4770      	bx	lr

080003e2 <SysTick_Handler>:

/**
  * @brief This function handles System tick timer.
  */
void SysTick_Handler(void)
{
 80003e2:	b580      	push	{r7, lr}
 80003e4:	af00      	add	r7, sp, #0
  /* USER CODE BEGIN SysTick_IRQn 0 */

  /* USER CODE END SysTick_IRQn 0 */
  HAL_IncTick();
 80003e6:	f000 f87f 	bl	80004e8 <HAL_IncTick>
  /* USER CODE BEGIN SysTick_IRQn 1 */

  /* USER CODE END SysTick_IRQn 1 */
}
 80003ea:	bf00      	nop
 80003ec:	bd80      	pop	{r7, pc}
	...

080003f0 <TIM2_IRQHandler>:

/**
  * @brief This function handles TIM2 global interrupt.
  */
void TIM2_IRQHandler(void)
{
 80003f0:	b580      	push	{r7, lr}
 80003f2:	af00      	add	r7, sp, #0
  /* USER CODE BEGIN TIM2_IRQn 0 */

  /* USER CODE END TIM2_IRQn 0 */
  HAL_TIM_IRQHandler(&htim2);
 80003f4:	4802      	ldr	r0, [pc, #8]	; (8000400 <TIM2_IRQHandler+0x10>)
 80003f6:	f000 ffed 	bl	80013d4 <HAL_TIM_IRQHandler>
  /* USER CODE BEGIN TIM2_IRQn 1 */

  /* USER CODE END TIM2_IRQn 1 */
}
 80003fa:	bf00      	nop
 80003fc:	bd80      	pop	{r7, pc}
 80003fe:	bf00      	nop
 8000400:	20000028 	.word	0x20000028

08000404 <SystemInit>:
  * @note   This function should be used only after reset.
  * @param  None
  * @retval None
  */
void SystemInit (void)
{
 8000404:	b480      	push	{r7}
 8000406:	af00      	add	r7, sp, #0

  /* Configure the Vector Table location -------------------------------------*/
#if defined(USER_VECT_TAB_ADDRESS)
  SCB->VTOR = VECT_TAB_BASE_ADDRESS | VECT_TAB_OFFSET; /* Vector Table Relocation in Internal SRAM. */
#endif /* USER_VECT_TAB_ADDRESS */
}
 8000408:	bf00      	nop
 800040a:	46bd      	mov	sp, r7
 800040c:	bc80      	pop	{r7}
 800040e:	4770      	bx	lr

08000410 <Reset_Handler>:
  .weak Reset_Handler
  .type Reset_Handler, %function
Reset_Handler:

/* Call the clock system initialization function.*/
    bl  SystemInit
 8000410:	f7ff fff8 	bl	8000404 <SystemInit>

/* Copy the data segment initializers from flash to SRAM */
  ldr r0, =_sdata
 8000414:	480b      	ldr	r0, [pc, #44]	; (8000444 <LoopFillZerobss+0xe>)
  ldr r1, =_edata
 8000416:	490c      	ldr	r1, [pc, #48]	; (8000448 <LoopFillZerobss+0x12>)
  ldr r2, =_sidata
 8000418:	4a0c      	ldr	r2, [pc, #48]	; (800044c <LoopFillZerobss+0x16>)
  movs r3, #0
 800041a:	2300      	movs	r3, #0
  b LoopCopyDataInit
 800041c:	e002      	b.n	8000424 <LoopCopyDataInit>

0800041e <CopyDataInit>:

CopyDataInit:
  ldr r4, [r2, r3]
 800041e:	58d4      	ldr	r4, [r2, r3]
  str r4, [r0, r3]
 8000420:	50c4      	str	r4, [r0, r3]
  adds r3, r3, #4
 8000422:	3304      	adds	r3, #4

08000424 <LoopCopyDataInit>:

LoopCopyDataInit:
  adds r4, r0, r3
 8000424:	18c4      	adds	r4, r0, r3
  cmp r4, r1
 8000426:	428c      	cmp	r4, r1
  bcc CopyDataInit
 8000428:	d3f9      	bcc.n	800041e <CopyDataInit>
  
/* Zero fill the bss segment. */
  ldr r2, =_sbss
 800042a:	4a09      	ldr	r2, [pc, #36]	; (8000450 <LoopFillZerobss+0x1a>)
  ldr r4, =_ebss
 800042c:	4c09      	ldr	r4, [pc, #36]	; (8000454 <LoopFillZerobss+0x1e>)
  movs r3, #0
 800042e:	2300      	movs	r3, #0
  b LoopFillZerobss
 8000430:	e001      	b.n	8000436 <LoopFillZerobss>

08000432 <FillZerobss>:

FillZerobss:
  str  r3, [r2]
 8000432:	6013      	str	r3, [r2, #0]
  adds r2, r2, #4
 8000434:	3204      	adds	r2, #4

08000436 <LoopFillZerobss>:

LoopFillZerobss:
  cmp r2, r4
 8000436:	42a2      	cmp	r2, r4
  bcc FillZerobss
 8000438:	d3fb      	bcc.n	8000432 <FillZerobss>

/* Call static constructors */
    bl __libc_init_array
 800043a:	f001 fb17 	bl	8001a6c <__libc_init_array>
/* Call the application's entry point.*/
  bl main
 800043e:	f7ff fe85 	bl	800014c <main>
  bx lr
 8000442:	4770      	bx	lr
  ldr r0, =_sdata
 8000444:	20000000 	.word	0x20000000
  ldr r1, =_edata
 8000448:	2000000c 	.word	0x2000000c
  ldr r2, =_sidata
 800044c:	08001b08 	.word	0x08001b08
  ldr r2, =_sbss
 8000450:	2000000c 	.word	0x2000000c
  ldr r4, =_ebss
 8000454:	20000074 	.word	0x20000074

08000458 <ADC1_2_IRQHandler>:
 * @retval : None
*/
    .section .text.Default_Handler,"ax",%progbits
Default_Handler:
Infinite_Loop:
  b Infinite_Loop
 8000458:	e7fe      	b.n	8000458 <ADC1_2_IRQHandler>
	...

0800045c <HAL_Init>:
  *         need to ensure that the SysTick time base is always set to 1 millisecond
  *         to have correct HAL operation.
  * @retval HAL status
  */
HAL_StatusTypeDef HAL_Init(void)
{
 800045c:	b580      	push	{r7, lr}
 800045e:	af00      	add	r7, sp, #0
    defined(STM32F102x6) || defined(STM32F102xB) || \
    defined(STM32F103x6) || defined(STM32F103xB) || defined(STM32F103xE) || defined(STM32F103xG) || \
    defined(STM32F105xC) || defined(STM32F107xC)

  /* Prefetch buffer is not available on value line devices */
  __HAL_FLASH_PREFETCH_BUFFER_ENABLE();
 8000460:	4b08      	ldr	r3, [pc, #32]	; (8000484 <HAL_Init+0x28>)
 8000462:	681b      	ldr	r3, [r3, #0]
 8000464:	4a07      	ldr	r2, [pc, #28]	; (8000484 <HAL_Init+0x28>)
 8000466:	f043 0310 	orr.w	r3, r3, #16
 800046a:	6013      	str	r3, [r2, #0]
#endif
#endif /* PREFETCH_ENABLE */

  /* Set Interrupt Group Priority */
  HAL_NVIC_SetPriorityGrouping(NVIC_PRIORITYGROUP_4);
 800046c:	2003      	movs	r0, #3
 800046e:	f000 f947 	bl	8000700 <HAL_NVIC_SetPriorityGrouping>

  /* Use systick as time base source and configure 1ms tick (default clock after Reset is HSI) */
  HAL_InitTick(TICK_INT_PRIORITY);
 8000472:	200f      	movs	r0, #15
 8000474:	f000 f808 	bl	8000488 <HAL_InitTick>

  /* Init the low level hardware */
  HAL_MspInit();
 8000478:	f7ff ff4c 	bl	8000314 <HAL_MspInit>

  /* Return function status */
  return HAL_OK;
 800047c:	2300      	movs	r3, #0
}
 800047e:	4618      	mov	r0, r3
 8000480:	bd80      	pop	{r7, pc}
 8000482:	bf00      	nop
 8000484:	40022000 	.word	0x40022000

08000488 <HAL_InitTick>:
  *       implementation  in user file.
  * @param TickPriority Tick interrupt priority.
  * @retval HAL status
  */
__weak HAL_StatusTypeDef HAL_InitTick(uint32_t TickPriority)
{
 8000488:	b580      	push	{r7, lr}
 800048a:	b082      	sub	sp, #8
 800048c:	af00      	add	r7, sp, #0
 800048e:	6078      	str	r0, [r7, #4]
  /* Configure the SysTick to have interrupt in 1ms time basis*/
  if (HAL_SYSTICK_Config(SystemCoreClock / (1000U / uwTickFreq)) > 0U)
 8000490:	4b12      	ldr	r3, [pc, #72]	; (80004dc <HAL_InitTick+0x54>)
 8000492:	681a      	ldr	r2, [r3, #0]
 8000494:	4b12      	ldr	r3, [pc, #72]	; (80004e0 <HAL_InitTick+0x58>)
 8000496:	781b      	ldrb	r3, [r3, #0]
 8000498:	4619      	mov	r1, r3
 800049a:	f44f 737a 	mov.w	r3, #1000	; 0x3e8
 800049e:	fbb3 f3f1 	udiv	r3, r3, r1
 80004a2:	fbb2 f3f3 	udiv	r3, r2, r3
 80004a6:	4618      	mov	r0, r3
 80004a8:	f000 f95f 	bl	800076a <HAL_SYSTICK_Config>
 80004ac:	4603      	mov	r3, r0
 80004ae:	2b00      	cmp	r3, #0
 80004b0:	d001      	beq.n	80004b6 <HAL_InitTick+0x2e>
  {
    return HAL_ERROR;
 80004b2:	2301      	movs	r3, #1
 80004b4:	e00e      	b.n	80004d4 <HAL_InitTick+0x4c>
  }

  /* Configure the SysTick IRQ priority */
  if (TickPriority < (1UL << __NVIC_PRIO_BITS))
 80004b6:	687b      	ldr	r3, [r7, #4]
 80004b8:	2b0f      	cmp	r3, #15
 80004ba:	d80a      	bhi.n	80004d2 <HAL_InitTick+0x4a>
  {
    HAL_NVIC_SetPriority(SysTick_IRQn, TickPriority, 0U);
 80004bc:	2200      	movs	r2, #0
 80004be:	6879      	ldr	r1, [r7, #4]
 80004c0:	f04f 30ff 	mov.w	r0, #4294967295
 80004c4:	f000 f927 	bl	8000716 <HAL_NVIC_SetPriority>
    uwTickPrio = TickPriority;
 80004c8:	4a06      	ldr	r2, [pc, #24]	; (80004e4 <HAL_InitTick+0x5c>)
 80004ca:	687b      	ldr	r3, [r7, #4]
 80004cc:	6013      	str	r3, [r2, #0]
  {
    return HAL_ERROR;
  }

  /* Return function status */
  return HAL_OK;
 80004ce:	2300      	movs	r3, #0
 80004d0:	e000      	b.n	80004d4 <HAL_InitTick+0x4c>
    return HAL_ERROR;
 80004d2:	2301      	movs	r3, #1
}
 80004d4:	4618      	mov	r0, r3
 80004d6:	3708      	adds	r7, #8
 80004d8:	46bd      	mov	sp, r7
 80004da:	bd80      	pop	{r7, pc}
 80004dc:	20000000 	.word	0x20000000
 80004e0:	20000008 	.word	0x20000008
 80004e4:	20000004 	.word	0x20000004

080004e8 <HAL_IncTick>:
  * @note This function is declared as __weak to be overwritten in case of other
  *      implementations in user file.
  * @retval None
  */
__weak void HAL_IncTick(void)
{
 80004e8:	b480      	push	{r7}
 80004ea:	af00      	add	r7, sp, #0
  uwTick += uwTickFreq;
 80004ec:	4b05      	ldr	r3, [pc, #20]	; (8000504 <HAL_IncTick+0x1c>)
 80004ee:	781b      	ldrb	r3, [r3, #0]
 80004f0:	461a      	mov	r2, r3
 80004f2:	4b05      	ldr	r3, [pc, #20]	; (8000508 <HAL_IncTick+0x20>)
 80004f4:	681b      	ldr	r3, [r3, #0]
 80004f6:	4413      	add	r3, r2
 80004f8:	4a03      	ldr	r2, [pc, #12]	; (8000508 <HAL_IncTick+0x20>)
 80004fa:	6013      	str	r3, [r2, #0]
}
 80004fc:	bf00      	nop
 80004fe:	46bd      	mov	sp, r7
 8000500:	bc80      	pop	{r7}
 8000502:	4770      	bx	lr
 8000504:	20000008 	.word	0x20000008
 8000508:	20000070 	.word	0x20000070

0800050c <HAL_GetTick>:
  * @note  This function is declared as __weak to be overwritten in case of other
  *       implementations in user file.
  * @retval tick value
  */
__weak uint32_t HAL_GetTick(void)
{
 800050c:	b480      	push	{r7}
 800050e:	af00      	add	r7, sp, #0
  return uwTick;
 8000510:	4b02      	ldr	r3, [pc, #8]	; (800051c <HAL_GetTick+0x10>)
 8000512:	681b      	ldr	r3, [r3, #0]
}
 8000514:	4618      	mov	r0, r3
 8000516:	46bd      	mov	sp, r7
 8000518:	bc80      	pop	{r7}
 800051a:	4770      	bx	lr
 800051c:	20000070 	.word	0x20000070

08000520 <HAL_Delay>:
  *       implementations in user file.
  * @param Delay specifies the delay time length, in milliseconds.
  * @retval None
  */
__weak void HAL_Delay(uint32_t Delay)
{
 8000520:	b580      	push	{r7, lr}
 8000522:	b084      	sub	sp, #16
 8000524:	af00      	add	r7, sp, #0
 8000526:	6078      	str	r0, [r7, #4]
  uint32_t tickstart = HAL_GetTick();
 8000528:	f7ff fff0 	bl	800050c <HAL_GetTick>
 800052c:	60b8      	str	r0, [r7, #8]
  uint32_t wait = Delay;
 800052e:	687b      	ldr	r3, [r7, #4]
 8000530:	60fb      	str	r3, [r7, #12]

  /* Add a freq to guarantee minimum wait */
  if (wait < HAL_MAX_DELAY)
 8000532:	68fb      	ldr	r3, [r7, #12]
 8000534:	f1b3 3fff 	cmp.w	r3, #4294967295
 8000538:	d005      	beq.n	8000546 <HAL_Delay+0x26>
  {
    wait += (uint32_t)(uwTickFreq);
 800053a:	4b0a      	ldr	r3, [pc, #40]	; (8000564 <HAL_Delay+0x44>)
 800053c:	781b      	ldrb	r3, [r3, #0]
 800053e:	461a      	mov	r2, r3
 8000540:	68fb      	ldr	r3, [r7, #12]
 8000542:	4413      	add	r3, r2
 8000544:	60fb      	str	r3, [r7, #12]
  }

  while ((HAL_GetTick() - tickstart) < wait)
 8000546:	bf00      	nop
 8000548:	f7ff ffe0 	bl	800050c <HAL_GetTick>
 800054c:	4602      	mov	r2, r0
 800054e:	68bb      	ldr	r3, [r7, #8]
 8000550:	1ad3      	subs	r3, r2, r3
 8000552:	68fa      	ldr	r2, [r7, #12]
 8000554:	429a      	cmp	r2, r3
 8000556:	d8f7      	bhi.n	8000548 <HAL_Delay+0x28>
  {
  }
}
 8000558:	bf00      	nop
 800055a:	bf00      	nop
 800055c:	3710      	adds	r7, #16
 800055e:	46bd      	mov	sp, r7
 8000560:	bd80      	pop	{r7, pc}
 8000562:	bf00      	nop
 8000564:	20000008 	.word	0x20000008

08000568 <__NVIC_SetPriorityGrouping>:
           In case of a conflict between priority grouping and available
           priority bits (__NVIC_PRIO_BITS), the smallest possible priority group is set.
  \param [in]      PriorityGroup  Priority grouping field.
 */
__STATIC_INLINE void __NVIC_SetPriorityGrouping(uint32_t PriorityGroup)
{
 8000568:	b480      	push	{r7}
 800056a:	b085      	sub	sp, #20
 800056c:	af00      	add	r7, sp, #0
 800056e:	6078      	str	r0, [r7, #4]
  uint32_t reg_value;
  uint32_t PriorityGroupTmp = (PriorityGroup & (uint32_t)0x07UL);             /* only values 0..7 are used          */
 8000570:	687b      	ldr	r3, [r7, #4]
 8000572:	f003 0307 	and.w	r3, r3, #7
 8000576:	60fb      	str	r3, [r7, #12]

  reg_value  =  SCB->AIRCR;                                                   /* read old register configuration    */
 8000578:	4b0c      	ldr	r3, [pc, #48]	; (80005ac <__NVIC_SetPriorityGrouping+0x44>)
 800057a:	68db      	ldr	r3, [r3, #12]
 800057c:	60bb      	str	r3, [r7, #8]
  reg_value &= ~((uint32_t)(SCB_AIRCR_VECTKEY_Msk | SCB_AIRCR_PRIGROUP_Msk)); /* clear bits to change               */
 800057e:	68ba      	ldr	r2, [r7, #8]
 8000580:	f64f 03ff 	movw	r3, #63743	; 0xf8ff
 8000584:	4013      	ands	r3, r2
 8000586:	60bb      	str	r3, [r7, #8]
  reg_value  =  (reg_value                                   |
                ((uint32_t)0x5FAUL << SCB_AIRCR_VECTKEY_Pos) |
                (PriorityGroupTmp << SCB_AIRCR_PRIGROUP_Pos) );               /* Insert write key and priority group */
 8000588:	68fb      	ldr	r3, [r7, #12]
 800058a:	021a      	lsls	r2, r3, #8
                ((uint32_t)0x5FAUL << SCB_AIRCR_VECTKEY_Pos) |
 800058c:	68bb      	ldr	r3, [r7, #8]
 800058e:	4313      	orrs	r3, r2
  reg_value  =  (reg_value                                   |
 8000590:	f043 63bf 	orr.w	r3, r3, #100139008	; 0x5f80000
 8000594:	f443 3300 	orr.w	r3, r3, #131072	; 0x20000
 8000598:	60bb      	str	r3, [r7, #8]
  SCB->AIRCR =  reg_value;
 800059a:	4a04      	ldr	r2, [pc, #16]	; (80005ac <__NVIC_SetPriorityGrouping+0x44>)
 800059c:	68bb      	ldr	r3, [r7, #8]
 800059e:	60d3      	str	r3, [r2, #12]
}
 80005a0:	bf00      	nop
 80005a2:	3714      	adds	r7, #20
 80005a4:	46bd      	mov	sp, r7
 80005a6:	bc80      	pop	{r7}
 80005a8:	4770      	bx	lr
 80005aa:	bf00      	nop
 80005ac:	e000ed00 	.word	0xe000ed00

080005b0 <__NVIC_GetPriorityGrouping>:
  \brief   Get Priority Grouping
  \details Reads the priority grouping field from the NVIC Interrupt Controller.
  \return                Priority grouping field (SCB->AIRCR [10:8] PRIGROUP field).
 */
__STATIC_INLINE uint32_t __NVIC_GetPriorityGrouping(void)
{
 80005b0:	b480      	push	{r7}
 80005b2:	af00      	add	r7, sp, #0
  return ((uint32_t)((SCB->AIRCR & SCB_AIRCR_PRIGROUP_Msk) >> SCB_AIRCR_PRIGROUP_Pos));
 80005b4:	4b04      	ldr	r3, [pc, #16]	; (80005c8 <__NVIC_GetPriorityGrouping+0x18>)
 80005b6:	68db      	ldr	r3, [r3, #12]
 80005b8:	0a1b      	lsrs	r3, r3, #8
 80005ba:	f003 0307 	and.w	r3, r3, #7
}
 80005be:	4618      	mov	r0, r3
 80005c0:	46bd      	mov	sp, r7
 80005c2:	bc80      	pop	{r7}
 80005c4:	4770      	bx	lr
 80005c6:	bf00      	nop
 80005c8:	e000ed00 	.word	0xe000ed00

080005cc <__NVIC_EnableIRQ>:
  \details Enables a device specific interrupt in the NVIC interrupt controller.
  \param [in]      IRQn  Device specific interrupt number.
  \note    IRQn must not be negative.
 */
__STATIC_INLINE void __NVIC_EnableIRQ(IRQn_Type IRQn)
{
 80005cc:	b480      	push	{r7}
 80005ce:	b083      	sub	sp, #12
 80005d0:	af00      	add	r7, sp, #0
 80005d2:	4603      	mov	r3, r0
 80005d4:	71fb      	strb	r3, [r7, #7]
  if ((int32_t)(IRQn) >= 0)
 80005d6:	f997 3007 	ldrsb.w	r3, [r7, #7]
 80005da:	2b00      	cmp	r3, #0
 80005dc:	db0b      	blt.n	80005f6 <__NVIC_EnableIRQ+0x2a>
  {
    NVIC->ISER[(((uint32_t)IRQn) >> 5UL)] = (uint32_t)(1UL << (((uint32_t)IRQn) & 0x1FUL));
 80005de:	79fb      	ldrb	r3, [r7, #7]
 80005e0:	f003 021f 	and.w	r2, r3, #31
 80005e4:	4906      	ldr	r1, [pc, #24]	; (8000600 <__NVIC_EnableIRQ+0x34>)
 80005e6:	f997 3007 	ldrsb.w	r3, [r7, #7]
 80005ea:	095b      	lsrs	r3, r3, #5
 80005ec:	2001      	movs	r0, #1
 80005ee:	fa00 f202 	lsl.w	r2, r0, r2
 80005f2:	f841 2023 	str.w	r2, [r1, r3, lsl #2]
  }
}
 80005f6:	bf00      	nop
 80005f8:	370c      	adds	r7, #12
 80005fa:	46bd      	mov	sp, r7
 80005fc:	bc80      	pop	{r7}
 80005fe:	4770      	bx	lr
 8000600:	e000e100 	.word	0xe000e100

08000604 <__NVIC_SetPriority>:
  \param [in]      IRQn  Interrupt number.
  \param [in]  priority  Priority to set.
  \note    The priority cannot be set for every processor exception.
 */
__STATIC_INLINE void __NVIC_SetPriority(IRQn_Type IRQn, uint32_t priority)
{
 8000604:	b480      	push	{r7}
 8000606:	b083      	sub	sp, #12
 8000608:	af00      	add	r7, sp, #0
 800060a:	4603      	mov	r3, r0
 800060c:	6039      	str	r1, [r7, #0]
 800060e:	71fb      	strb	r3, [r7, #7]
  if ((int32_t)(IRQn) >= 0)
 8000610:	f997 3007 	ldrsb.w	r3, [r7, #7]
 8000614:	2b00      	cmp	r3, #0
 8000616:	db0a      	blt.n	800062e <__NVIC_SetPriority+0x2a>
  {
    NVIC->IP[((uint32_t)IRQn)]               = (uint8_t)((priority << (8U - __NVIC_PRIO_BITS)) & (uint32_t)0xFFUL);
 8000618:	683b      	ldr	r3, [r7, #0]
 800061a:	b2da      	uxtb	r2, r3
 800061c:	490c      	ldr	r1, [pc, #48]	; (8000650 <__NVIC_SetPriority+0x4c>)
 800061e:	f997 3007 	ldrsb.w	r3, [r7, #7]
 8000622:	0112      	lsls	r2, r2, #4
 8000624:	b2d2      	uxtb	r2, r2
 8000626:	440b      	add	r3, r1
 8000628:	f883 2300 	strb.w	r2, [r3, #768]	; 0x300
  }
  else
  {
    SCB->SHP[(((uint32_t)IRQn) & 0xFUL)-4UL] = (uint8_t)((priority << (8U - __NVIC_PRIO_BITS)) & (uint32_t)0xFFUL);
  }
}
 800062c:	e00a      	b.n	8000644 <__NVIC_SetPriority+0x40>
    SCB->SHP[(((uint32_t)IRQn) & 0xFUL)-4UL] = (uint8_t)((priority << (8U - __NVIC_PRIO_BITS)) & (uint32_t)0xFFUL);
 800062e:	683b      	ldr	r3, [r7, #0]
 8000630:	b2da      	uxtb	r2, r3
 8000632:	4908      	ldr	r1, [pc, #32]	; (8000654 <__NVIC_SetPriority+0x50>)
 8000634:	79fb      	ldrb	r3, [r7, #7]
 8000636:	f003 030f 	and.w	r3, r3, #15
 800063a:	3b04      	subs	r3, #4
 800063c:	0112      	lsls	r2, r2, #4
 800063e:	b2d2      	uxtb	r2, r2
 8000640:	440b      	add	r3, r1
 8000642:	761a      	strb	r2, [r3, #24]
}
 8000644:	bf00      	nop
 8000646:	370c      	adds	r7, #12
 8000648:	46bd      	mov	sp, r7
 800064a:	bc80      	pop	{r7}
 800064c:	4770      	bx	lr
 800064e:	bf00      	nop
 8000650:	e000e100 	.word	0xe000e100
 8000654:	e000ed00 	.word	0xe000ed00

08000658 <NVIC_EncodePriority>:
  \param [in]   PreemptPriority  Preemptive priority value (starting from 0).
  \param [in]       SubPriority  Subpriority value (starting from 0).
  \return                        Encoded priority. Value can be used in the function \ref NVIC_SetPriority().
 */
__STATIC_INLINE uint32_t NVIC_EncodePriority (uint32_t PriorityGroup, uint32_t PreemptPriority, uint32_t SubPriority)
{
 8000658:	b480      	push	{r7}
 800065a:	b089      	sub	sp, #36	; 0x24
 800065c:	af00      	add	r7, sp, #0
 800065e:	60f8      	str	r0, [r7, #12]
 8000660:	60b9      	str	r1, [r7, #8]
 8000662:	607a      	str	r2, [r7, #4]
  uint32_t PriorityGroupTmp = (PriorityGroup & (uint32_t)0x07UL);   /* only values 0..7 are used          */
 8000664:	68fb      	ldr	r3, [r7, #12]
 8000666:	f003 0307 	and.w	r3, r3, #7
 800066a:	61fb      	str	r3, [r7, #28]
  uint32_t PreemptPriorityBits;
  uint32_t SubPriorityBits;

  PreemptPriorityBits = ((7UL - PriorityGroupTmp) > (uint32_t)(__NVIC_PRIO_BITS)) ? (uint32_t)(__NVIC_PRIO_BITS) : (uint32_t)(7UL - PriorityGroupTmp);
 800066c:	69fb      	ldr	r3, [r7, #28]
 800066e:	f1c3 0307 	rsb	r3, r3, #7
 8000672:	2b04      	cmp	r3, #4
 8000674:	bf28      	it	cs
 8000676:	2304      	movcs	r3, #4
 8000678:	61bb      	str	r3, [r7, #24]
  SubPriorityBits     = ((PriorityGroupTmp + (uint32_t)(__NVIC_PRIO_BITS)) < (uint32_t)7UL) ? (uint32_t)0UL : (uint32_t)((PriorityGroupTmp - 7UL) + (uint32_t)(__NVIC_PRIO_BITS));
 800067a:	69fb      	ldr	r3, [r7, #28]
 800067c:	3304      	adds	r3, #4
 800067e:	2b06      	cmp	r3, #6
 8000680:	d902      	bls.n	8000688 <NVIC_EncodePriority+0x30>
 8000682:	69fb      	ldr	r3, [r7, #28]
 8000684:	3b03      	subs	r3, #3
 8000686:	e000      	b.n	800068a <NVIC_EncodePriority+0x32>
 8000688:	2300      	movs	r3, #0
 800068a:	617b      	str	r3, [r7, #20]

  return (
           ((PreemptPriority & (uint32_t)((1UL << (PreemptPriorityBits)) - 1UL)) << SubPriorityBits) |
 800068c:	f04f 32ff 	mov.w	r2, #4294967295
 8000690:	69bb      	ldr	r3, [r7, #24]
 8000692:	fa02 f303 	lsl.w	r3, r2, r3
 8000696:	43da      	mvns	r2, r3
 8000698:	68bb      	ldr	r3, [r7, #8]
 800069a:	401a      	ands	r2, r3
 800069c:	697b      	ldr	r3, [r7, #20]
 800069e:	409a      	lsls	r2, r3
           ((SubPriority     & (uint32_t)((1UL << (SubPriorityBits    )) - 1UL)))
 80006a0:	f04f 31ff 	mov.w	r1, #4294967295
 80006a4:	697b      	ldr	r3, [r7, #20]
 80006a6:	fa01 f303 	lsl.w	r3, r1, r3
 80006aa:	43d9      	mvns	r1, r3
 80006ac:	687b      	ldr	r3, [r7, #4]
 80006ae:	400b      	ands	r3, r1
           ((PreemptPriority & (uint32_t)((1UL << (PreemptPriorityBits)) - 1UL)) << SubPriorityBits) |
 80006b0:	4313      	orrs	r3, r2
         );
}
 80006b2:	4618      	mov	r0, r3
 80006b4:	3724      	adds	r7, #36	; 0x24
 80006b6:	46bd      	mov	sp, r7
 80006b8:	bc80      	pop	{r7}
 80006ba:	4770      	bx	lr

080006bc <SysTick_Config>:
  \note    When the variable <b>__Vendor_SysTickConfig</b> is set to 1, then the
           function <b>SysTick_Config</b> is not included. In this case, the file <b><i>device</i>.h</b>
           must contain a vendor-specific implementation of this function.
 */
__STATIC_INLINE uint32_t SysTick_Config(uint32_t ticks)
{
 80006bc:	b580      	push	{r7, lr}
 80006be:	b082      	sub	sp, #8
 80006c0:	af00      	add	r7, sp, #0
 80006c2:	6078      	str	r0, [r7, #4]
  if ((ticks - 1UL) > SysTick_LOAD_RELOAD_Msk)
 80006c4:	687b      	ldr	r3, [r7, #4]
 80006c6:	3b01      	subs	r3, #1
 80006c8:	f1b3 7f80 	cmp.w	r3, #16777216	; 0x1000000
 80006cc:	d301      	bcc.n	80006d2 <SysTick_Config+0x16>
  {
    return (1UL);                                                   /* Reload value impossible */
 80006ce:	2301      	movs	r3, #1
 80006d0:	e00f      	b.n	80006f2 <SysTick_Config+0x36>
  }

  SysTick->LOAD  = (uint32_t)(ticks - 1UL);                         /* set reload register */
 80006d2:	4a0a      	ldr	r2, [pc, #40]	; (80006fc <SysTick_Config+0x40>)
 80006d4:	687b      	ldr	r3, [r7, #4]
 80006d6:	3b01      	subs	r3, #1
 80006d8:	6053      	str	r3, [r2, #4]
  NVIC_SetPriority (SysTick_IRQn, (1UL << __NVIC_PRIO_BITS) - 1UL); /* set Priority for Systick Interrupt */
 80006da:	210f      	movs	r1, #15
 80006dc:	f04f 30ff 	mov.w	r0, #4294967295
 80006e0:	f7ff ff90 	bl	8000604 <__NVIC_SetPriority>
  SysTick->VAL   = 0UL;                                             /* Load the SysTick Counter Value */
 80006e4:	4b05      	ldr	r3, [pc, #20]	; (80006fc <SysTick_Config+0x40>)
 80006e6:	2200      	movs	r2, #0
 80006e8:	609a      	str	r2, [r3, #8]
  SysTick->CTRL  = SysTick_CTRL_CLKSOURCE_Msk |
 80006ea:	4b04      	ldr	r3, [pc, #16]	; (80006fc <SysTick_Config+0x40>)
 80006ec:	2207      	movs	r2, #7
 80006ee:	601a      	str	r2, [r3, #0]
                   SysTick_CTRL_TICKINT_Msk   |
                   SysTick_CTRL_ENABLE_Msk;                         /* Enable SysTick IRQ and SysTick Timer */
  return (0UL);                                                     /* Function successful */
 80006f0:	2300      	movs	r3, #0
}
 80006f2:	4618      	mov	r0, r3
 80006f4:	3708      	adds	r7, #8
 80006f6:	46bd      	mov	sp, r7
 80006f8:	bd80      	pop	{r7, pc}
 80006fa:	bf00      	nop
 80006fc:	e000e010 	.word	0xe000e010

08000700 <HAL_NVIC_SetPriorityGrouping>:
  * @note   When the NVIC_PriorityGroup_0 is selected, IRQ preemption is no more possible. 
  *         The pending IRQ priority will be managed only by the subpriority. 
  * @retval None
  */
void HAL_NVIC_SetPriorityGrouping(uint32_t PriorityGroup)
{
 8000700:	b580      	push	{r7, lr}
 8000702:	b082      	sub	sp, #8
 8000704:	af00      	add	r7, sp, #0
 8000706:	6078      	str	r0, [r7, #4]
  /* Check the parameters */
  assert_param(IS_NVIC_PRIORITY_GROUP(PriorityGroup));
  
  /* Set the PRIGROUP[10:8] bits according to the PriorityGroup parameter value */
  NVIC_SetPriorityGrouping(PriorityGroup);
 8000708:	6878      	ldr	r0, [r7, #4]
 800070a:	f7ff ff2d 	bl	8000568 <__NVIC_SetPriorityGrouping>
}
 800070e:	bf00      	nop
 8000710:	3708      	adds	r7, #8
 8000712:	46bd      	mov	sp, r7
 8000714:	bd80      	pop	{r7, pc}

08000716 <HAL_NVIC_SetPriority>:
  *         This parameter can be a value between 0 and 15
  *         A lower priority value indicates a higher priority.          
  * @retval None
  */
void HAL_NVIC_SetPriority(IRQn_Type IRQn, uint32_t PreemptPriority, uint32_t SubPriority)
{ 
 8000716:	b580      	push	{r7, lr}
 8000718:	b086      	sub	sp, #24
 800071a:	af00      	add	r7, sp, #0
 800071c:	4603      	mov	r3, r0
 800071e:	60b9      	str	r1, [r7, #8]
 8000720:	607a      	str	r2, [r7, #4]
 8000722:	73fb      	strb	r3, [r7, #15]
  uint32_t prioritygroup = 0x00U;
 8000724:	2300      	movs	r3, #0
 8000726:	617b      	str	r3, [r7, #20]
  
  /* Check the parameters */
  assert_param(IS_NVIC_SUB_PRIORITY(SubPriority));
  assert_param(IS_NVIC_PREEMPTION_PRIORITY(PreemptPriority));
  
  prioritygroup = NVIC_GetPriorityGrouping();
 8000728:	f7ff ff42 	bl	80005b0 <__NVIC_GetPriorityGrouping>
 800072c:	6178      	str	r0, [r7, #20]
  
  NVIC_SetPriority(IRQn, NVIC_EncodePriority(prioritygroup, PreemptPriority, SubPriority));
 800072e:	687a      	ldr	r2, [r7, #4]
 8000730:	68b9      	ldr	r1, [r7, #8]
 8000732:	6978      	ldr	r0, [r7, #20]
 8000734:	f7ff ff90 	bl	8000658 <NVIC_EncodePriority>
 8000738:	4602      	mov	r2, r0
 800073a:	f997 300f 	ldrsb.w	r3, [r7, #15]
 800073e:	4611      	mov	r1, r2
 8000740:	4618      	mov	r0, r3
 8000742:	f7ff ff5f 	bl	8000604 <__NVIC_SetPriority>
}
 8000746:	bf00      	nop
 8000748:	3718      	adds	r7, #24
 800074a:	46bd      	mov	sp, r7
 800074c:	bd80      	pop	{r7, pc}

0800074e <HAL_NVIC_EnableIRQ>:
  *         This parameter can be an enumerator of IRQn_Type enumeration
  *         (For the complete STM32 Devices IRQ Channels list, please refer to the appropriate CMSIS device file (stm32f10xxx.h))
  * @retval None
  */
void HAL_NVIC_EnableIRQ(IRQn_Type IRQn)
{
 800074e:	b580      	push	{r7, lr}
 8000750:	b082      	sub	sp, #8
 8000752:	af00      	add	r7, sp, #0
 8000754:	4603      	mov	r3, r0
 8000756:	71fb      	strb	r3, [r7, #7]
  /* Check the parameters */
  assert_param(IS_NVIC_DEVICE_IRQ(IRQn));

  /* Enable interrupt */
  NVIC_EnableIRQ(IRQn);
 8000758:	f997 3007 	ldrsb.w	r3, [r7, #7]
 800075c:	4618      	mov	r0, r3
 800075e:	f7ff ff35 	bl	80005cc <__NVIC_EnableIRQ>
}
 8000762:	bf00      	nop
 8000764:	3708      	adds	r7, #8
 8000766:	46bd      	mov	sp, r7
 8000768:	bd80      	pop	{r7, pc}

0800076a <HAL_SYSTICK_Config>:
  * @param  TicksNumb: Specifies the ticks Number of ticks between two interrupts.
  * @retval status:  - 0  Function succeeded.
  *                  - 1  Function failed.
  */
uint32_t HAL_SYSTICK_Config(uint32_t TicksNumb)
{
 800076a:	b580      	push	{r7, lr}
 800076c:	b082      	sub	sp, #8
 800076e:	af00      	add	r7, sp, #0
 8000770:	6078      	str	r0, [r7, #4]
   return SysTick_Config(TicksNumb);
 8000772:	6878      	ldr	r0, [r7, #4]
 8000774:	f7ff ffa2 	bl	80006bc <SysTick_Config>
 8000778:	4603      	mov	r3, r0
}
 800077a:	4618      	mov	r0, r3
 800077c:	3708      	adds	r7, #8
 800077e:	46bd      	mov	sp, r7
 8000780:	bd80      	pop	{r7, pc}
	...

08000784 <HAL_GPIO_Init>:
  * @param  GPIO_Init: pointer to a GPIO_InitTypeDef structure that contains
  *         the configuration information for the specified GPIO peripheral.
  * @retval None
  */
void HAL_GPIO_Init(GPIO_TypeDef  *GPIOx, GPIO_InitTypeDef *GPIO_Init)
{
 8000784:	b480      	push	{r7}
 8000786:	b08b      	sub	sp, #44	; 0x2c
 8000788:	af00      	add	r7, sp, #0
 800078a:	6078      	str	r0, [r7, #4]
 800078c:	6039      	str	r1, [r7, #0]
  uint32_t position = 0x00u;
 800078e:	2300      	movs	r3, #0
 8000790:	627b      	str	r3, [r7, #36]	; 0x24
  uint32_t ioposition;
  uint32_t iocurrent;
  uint32_t temp;
  uint32_t config = 0x00u;
 8000792:	2300      	movs	r3, #0
 8000794:	623b      	str	r3, [r7, #32]
  assert_param(IS_GPIO_ALL_INSTANCE(GPIOx));
  assert_param(IS_GPIO_PIN(GPIO_Init->Pin));
  assert_param(IS_GPIO_MODE(GPIO_Init->Mode));

  /* Configure the port pins */
  while (((GPIO_Init->Pin) >> position) != 0x00u)
 8000796:	e161      	b.n	8000a5c <HAL_GPIO_Init+0x2d8>
  {
    /* Get the IO position */
    ioposition = (0x01uL << position);
 8000798:	2201      	movs	r2, #1
 800079a:	6a7b      	ldr	r3, [r7, #36]	; 0x24
 800079c:	fa02 f303 	lsl.w	r3, r2, r3
 80007a0:	61fb      	str	r3, [r7, #28]

    /* Get the current IO position */
    iocurrent = (uint32_t)(GPIO_Init->Pin) & ioposition;
 80007a2:	683b      	ldr	r3, [r7, #0]
 80007a4:	681b      	ldr	r3, [r3, #0]
 80007a6:	69fa      	ldr	r2, [r7, #28]
 80007a8:	4013      	ands	r3, r2
 80007aa:	61bb      	str	r3, [r7, #24]

    if (iocurrent == ioposition)
 80007ac:	69ba      	ldr	r2, [r7, #24]
 80007ae:	69fb      	ldr	r3, [r7, #28]
 80007b0:	429a      	cmp	r2, r3
 80007b2:	f040 8150 	bne.w	8000a56 <HAL_GPIO_Init+0x2d2>
    {
      /* Check the Alternate function parameters */
      assert_param(IS_GPIO_AF_INSTANCE(GPIOx));

      /* Based on the required mode, filling config variable with MODEy[1:0] and CNFy[3:2] corresponding bits */
      switch (GPIO_Init->Mode)
 80007b6:	683b      	ldr	r3, [r7, #0]
 80007b8:	685b      	ldr	r3, [r3, #4]
 80007ba:	4a97      	ldr	r2, [pc, #604]	; (8000a18 <HAL_GPIO_Init+0x294>)
 80007bc:	4293      	cmp	r3, r2
 80007be:	d05e      	beq.n	800087e <HAL_GPIO_Init+0xfa>
 80007c0:	4a95      	ldr	r2, [pc, #596]	; (8000a18 <HAL_GPIO_Init+0x294>)
 80007c2:	4293      	cmp	r3, r2
 80007c4:	d875      	bhi.n	80008b2 <HAL_GPIO_Init+0x12e>
 80007c6:	4a95      	ldr	r2, [pc, #596]	; (8000a1c <HAL_GPIO_Init+0x298>)
 80007c8:	4293      	cmp	r3, r2
 80007ca:	d058      	beq.n	800087e <HAL_GPIO_Init+0xfa>
 80007cc:	4a93      	ldr	r2, [pc, #588]	; (8000a1c <HAL_GPIO_Init+0x298>)
 80007ce:	4293      	cmp	r3, r2
 80007d0:	d86f      	bhi.n	80008b2 <HAL_GPIO_Init+0x12e>
 80007d2:	4a93      	ldr	r2, [pc, #588]	; (8000a20 <HAL_GPIO_Init+0x29c>)
 80007d4:	4293      	cmp	r3, r2
 80007d6:	d052      	beq.n	800087e <HAL_GPIO_Init+0xfa>
 80007d8:	4a91      	ldr	r2, [pc, #580]	; (8000a20 <HAL_GPIO_Init+0x29c>)
 80007da:	4293      	cmp	r3, r2
 80007dc:	d869      	bhi.n	80008b2 <HAL_GPIO_Init+0x12e>
 80007de:	4a91      	ldr	r2, [pc, #580]	; (8000a24 <HAL_GPIO_Init+0x2a0>)
 80007e0:	4293      	cmp	r3, r2
 80007e2:	d04c      	beq.n	800087e <HAL_GPIO_Init+0xfa>
 80007e4:	4a8f      	ldr	r2, [pc, #572]	; (8000a24 <HAL_GPIO_Init+0x2a0>)
 80007e6:	4293      	cmp	r3, r2
 80007e8:	d863      	bhi.n	80008b2 <HAL_GPIO_Init+0x12e>
 80007ea:	4a8f      	ldr	r2, [pc, #572]	; (8000a28 <HAL_GPIO_Init+0x2a4>)
 80007ec:	4293      	cmp	r3, r2
 80007ee:	d046      	beq.n	800087e <HAL_GPIO_Init+0xfa>
 80007f0:	4a8d      	ldr	r2, [pc, #564]	; (8000a28 <HAL_GPIO_Init+0x2a4>)
 80007f2:	4293      	cmp	r3, r2
 80007f4:	d85d      	bhi.n	80008b2 <HAL_GPIO_Init+0x12e>
 80007f6:	2b12      	cmp	r3, #18
 80007f8:	d82a      	bhi.n	8000850 <HAL_GPIO_Init+0xcc>
 80007fa:	2b12      	cmp	r3, #18
 80007fc:	d859      	bhi.n	80008b2 <HAL_GPIO_Init+0x12e>
 80007fe:	a201      	add	r2, pc, #4	; (adr r2, 8000804 <HAL_GPIO_Init+0x80>)
 8000800:	f852 f023 	ldr.w	pc, [r2, r3, lsl #2]
 8000804:	0800087f 	.word	0x0800087f
 8000808:	08000859 	.word	0x08000859
 800080c:	0800086b 	.word	0x0800086b
 8000810:	080008ad 	.word	0x080008ad
 8000814:	080008b3 	.word	0x080008b3
 8000818:	080008b3 	.word	0x080008b3
 800081c:	080008b3 	.word	0x080008b3
 8000820:	080008b3 	.word	0x080008b3
 8000824:	080008b3 	.word	0x080008b3
 8000828:	080008b3 	.word	0x080008b3
 800082c:	080008b3 	.word	0x080008b3
 8000830:	080008b3 	.word	0x080008b3
 8000834:	080008b3 	.word	0x080008b3
 8000838:	080008b3 	.word	0x080008b3
 800083c:	080008b3 	.word	0x080008b3
 8000840:	080008b3 	.word	0x080008b3
 8000844:	080008b3 	.word	0x080008b3
 8000848:	08000861 	.word	0x08000861
 800084c:	08000875 	.word	0x08000875
 8000850:	4a76      	ldr	r2, [pc, #472]	; (8000a2c <HAL_GPIO_Init+0x2a8>)
 8000852:	4293      	cmp	r3, r2
 8000854:	d013      	beq.n	800087e <HAL_GPIO_Init+0xfa>
          config = GPIO_CR_MODE_INPUT + GPIO_CR_CNF_ANALOG;
          break;

        /* Parameters are checked with assert_param */
        default:
          break;
 8000856:	e02c      	b.n	80008b2 <HAL_GPIO_Init+0x12e>
          config = GPIO_Init->Speed + GPIO_CR_CNF_GP_OUTPUT_PP;
 8000858:	683b      	ldr	r3, [r7, #0]
 800085a:	68db      	ldr	r3, [r3, #12]
 800085c:	623b      	str	r3, [r7, #32]
          break;
 800085e:	e029      	b.n	80008b4 <HAL_GPIO_Init+0x130>
          config = GPIO_Init->Speed + GPIO_CR_CNF_GP_OUTPUT_OD;
 8000860:	683b      	ldr	r3, [r7, #0]
 8000862:	68db      	ldr	r3, [r3, #12]
 8000864:	3304      	adds	r3, #4
 8000866:	623b      	str	r3, [r7, #32]
          break;
 8000868:	e024      	b.n	80008b4 <HAL_GPIO_Init+0x130>
          config = GPIO_Init->Speed + GPIO_CR_CNF_AF_OUTPUT_PP;
 800086a:	683b      	ldr	r3, [r7, #0]
 800086c:	68db      	ldr	r3, [r3, #12]
 800086e:	3308      	adds	r3, #8
 8000870:	623b      	str	r3, [r7, #32]
          break;
 8000872:	e01f      	b.n	80008b4 <HAL_GPIO_Init+0x130>
          config = GPIO_Init->Speed + GPIO_CR_CNF_AF_OUTPUT_OD;
 8000874:	683b      	ldr	r3, [r7, #0]
 8000876:	68db      	ldr	r3, [r3, #12]
 8000878:	330c      	adds	r3, #12
 800087a:	623b      	str	r3, [r7, #32]
          break;
 800087c:	e01a      	b.n	80008b4 <HAL_GPIO_Init+0x130>
          if (GPIO_Init->Pull == GPIO_NOPULL)
 800087e:	683b      	ldr	r3, [r7, #0]
 8000880:	689b      	ldr	r3, [r3, #8]
 8000882:	2b00      	cmp	r3, #0
 8000884:	d102      	bne.n	800088c <HAL_GPIO_Init+0x108>
            config = GPIO_CR_MODE_INPUT + GPIO_CR_CNF_INPUT_FLOATING;
 8000886:	2304      	movs	r3, #4
 8000888:	623b      	str	r3, [r7, #32]
          break;
 800088a:	e013      	b.n	80008b4 <HAL_GPIO_Init+0x130>
          else if (GPIO_Init->Pull == GPIO_PULLUP)
 800088c:	683b      	ldr	r3, [r7, #0]
 800088e:	689b      	ldr	r3, [r3, #8]
 8000890:	2b01      	cmp	r3, #1
 8000892:	d105      	bne.n	80008a0 <HAL_GPIO_Init+0x11c>
            config = GPIO_CR_MODE_INPUT + GPIO_CR_CNF_INPUT_PU_PD;
 8000894:	2308      	movs	r3, #8
 8000896:	623b      	str	r3, [r7, #32]
            GPIOx->BSRR = ioposition;
 8000898:	687b      	ldr	r3, [r7, #4]
 800089a:	69fa      	ldr	r2, [r7, #28]
 800089c:	611a      	str	r2, [r3, #16]
          break;
 800089e:	e009      	b.n	80008b4 <HAL_GPIO_Init+0x130>
            config = GPIO_CR_MODE_INPUT + GPIO_CR_CNF_INPUT_PU_PD;
 80008a0:	2308      	movs	r3, #8
 80008a2:	623b      	str	r3, [r7, #32]
            GPIOx->BRR = ioposition;
 80008a4:	687b      	ldr	r3, [r7, #4]
 80008a6:	69fa      	ldr	r2, [r7, #28]
 80008a8:	615a      	str	r2, [r3, #20]
          break;
 80008aa:	e003      	b.n	80008b4 <HAL_GPIO_Init+0x130>
          config = GPIO_CR_MODE_INPUT + GPIO_CR_CNF_ANALOG;
 80008ac:	2300      	movs	r3, #0
 80008ae:	623b      	str	r3, [r7, #32]
          break;
 80008b0:	e000      	b.n	80008b4 <HAL_GPIO_Init+0x130>
          break;
 80008b2:	bf00      	nop
      }

      /* Check if the current bit belongs to first half or last half of the pin count number
       in order to address CRH or CRL register*/
      configregister = (iocurrent < GPIO_PIN_8) ? &GPIOx->CRL     : &GPIOx->CRH;
 80008b4:	69bb      	ldr	r3, [r7, #24]
 80008b6:	2bff      	cmp	r3, #255	; 0xff
 80008b8:	d801      	bhi.n	80008be <HAL_GPIO_Init+0x13a>
 80008ba:	687b      	ldr	r3, [r7, #4]
 80008bc:	e001      	b.n	80008c2 <HAL_GPIO_Init+0x13e>
 80008be:	687b      	ldr	r3, [r7, #4]
 80008c0:	3304      	adds	r3, #4
 80008c2:	617b      	str	r3, [r7, #20]
      registeroffset = (iocurrent < GPIO_PIN_8) ? (position << 2u) : ((position - 8u) << 2u);
 80008c4:	69bb      	ldr	r3, [r7, #24]
 80008c6:	2bff      	cmp	r3, #255	; 0xff
 80008c8:	d802      	bhi.n	80008d0 <HAL_GPIO_Init+0x14c>
 80008ca:	6a7b      	ldr	r3, [r7, #36]	; 0x24
 80008cc:	009b      	lsls	r3, r3, #2
 80008ce:	e002      	b.n	80008d6 <HAL_GPIO_Init+0x152>
 80008d0:	6a7b      	ldr	r3, [r7, #36]	; 0x24
 80008d2:	3b08      	subs	r3, #8
 80008d4:	009b      	lsls	r3, r3, #2
 80008d6:	613b      	str	r3, [r7, #16]

      /* Apply the new configuration of the pin to the register */
      MODIFY_REG((*configregister), ((GPIO_CRL_MODE0 | GPIO_CRL_CNF0) << registeroffset), (config << registeroffset));
 80008d8:	697b      	ldr	r3, [r7, #20]
 80008da:	681a      	ldr	r2, [r3, #0]
 80008dc:	210f      	movs	r1, #15
 80008de:	693b      	ldr	r3, [r7, #16]
 80008e0:	fa01 f303 	lsl.w	r3, r1, r3
 80008e4:	43db      	mvns	r3, r3
 80008e6:	401a      	ands	r2, r3
 80008e8:	6a39      	ldr	r1, [r7, #32]
 80008ea:	693b      	ldr	r3, [r7, #16]
 80008ec:	fa01 f303 	lsl.w	r3, r1, r3
 80008f0:	431a      	orrs	r2, r3
 80008f2:	697b      	ldr	r3, [r7, #20]
 80008f4:	601a      	str	r2, [r3, #0]

      /*--------------------- EXTI Mode Configuration ------------------------*/
      /* Configure the External Interrupt or event for the current IO */
      if ((GPIO_Init->Mode & EXTI_MODE) == EXTI_MODE)
 80008f6:	683b      	ldr	r3, [r7, #0]
 80008f8:	685b      	ldr	r3, [r3, #4]
 80008fa:	f003 5380 	and.w	r3, r3, #268435456	; 0x10000000
 80008fe:	2b00      	cmp	r3, #0
 8000900:	f000 80a9 	beq.w	8000a56 <HAL_GPIO_Init+0x2d2>
      {
        /* Enable AFIO Clock */
        __HAL_RCC_AFIO_CLK_ENABLE();
 8000904:	4b4a      	ldr	r3, [pc, #296]	; (8000a30 <HAL_GPIO_Init+0x2ac>)
 8000906:	699b      	ldr	r3, [r3, #24]
 8000908:	4a49      	ldr	r2, [pc, #292]	; (8000a30 <HAL_GPIO_Init+0x2ac>)
 800090a:	f043 0301 	orr.w	r3, r3, #1
 800090e:	6193      	str	r3, [r2, #24]
 8000910:	4b47      	ldr	r3, [pc, #284]	; (8000a30 <HAL_GPIO_Init+0x2ac>)
 8000912:	699b      	ldr	r3, [r3, #24]
 8000914:	f003 0301 	and.w	r3, r3, #1
 8000918:	60bb      	str	r3, [r7, #8]
 800091a:	68bb      	ldr	r3, [r7, #8]
        temp = AFIO->EXTICR[position >> 2u];
 800091c:	4a45      	ldr	r2, [pc, #276]	; (8000a34 <HAL_GPIO_Init+0x2b0>)
 800091e:	6a7b      	ldr	r3, [r7, #36]	; 0x24
 8000920:	089b      	lsrs	r3, r3, #2
 8000922:	3302      	adds	r3, #2
 8000924:	f852 3023 	ldr.w	r3, [r2, r3, lsl #2]
 8000928:	60fb      	str	r3, [r7, #12]
        CLEAR_BIT(temp, (0x0Fu) << (4u * (position & 0x03u)));
 800092a:	6a7b      	ldr	r3, [r7, #36]	; 0x24
 800092c:	f003 0303 	and.w	r3, r3, #3
 8000930:	009b      	lsls	r3, r3, #2
 8000932:	220f      	movs	r2, #15
 8000934:	fa02 f303 	lsl.w	r3, r2, r3
 8000938:	43db      	mvns	r3, r3
 800093a:	68fa      	ldr	r2, [r7, #12]
 800093c:	4013      	ands	r3, r2
 800093e:	60fb      	str	r3, [r7, #12]
        SET_BIT(temp, (GPIO_GET_INDEX(GPIOx)) << (4u * (position & 0x03u)));
 8000940:	687b      	ldr	r3, [r7, #4]
 8000942:	4a3d      	ldr	r2, [pc, #244]	; (8000a38 <HAL_GPIO_Init+0x2b4>)
 8000944:	4293      	cmp	r3, r2
 8000946:	d00d      	beq.n	8000964 <HAL_GPIO_Init+0x1e0>
 8000948:	687b      	ldr	r3, [r7, #4]
 800094a:	4a3c      	ldr	r2, [pc, #240]	; (8000a3c <HAL_GPIO_Init+0x2b8>)
 800094c:	4293      	cmp	r3, r2
 800094e:	d007      	beq.n	8000960 <HAL_GPIO_Init+0x1dc>
 8000950:	687b      	ldr	r3, [r7, #4]
 8000952:	4a3b      	ldr	r2, [pc, #236]	; (8000a40 <HAL_GPIO_Init+0x2bc>)
 8000954:	4293      	cmp	r3, r2
 8000956:	d101      	bne.n	800095c <HAL_GPIO_Init+0x1d8>
 8000958:	2302      	movs	r3, #2
 800095a:	e004      	b.n	8000966 <HAL_GPIO_Init+0x1e2>
 800095c:	2303      	movs	r3, #3
 800095e:	e002      	b.n	8000966 <HAL_GPIO_Init+0x1e2>
 8000960:	2301      	movs	r3, #1
 8000962:	e000      	b.n	8000966 <HAL_GPIO_Init+0x1e2>
 8000964:	2300      	movs	r3, #0
 8000966:	6a7a      	ldr	r2, [r7, #36]	; 0x24
 8000968:	f002 0203 	and.w	r2, r2, #3
 800096c:	0092      	lsls	r2, r2, #2
 800096e:	4093      	lsls	r3, r2
 8000970:	68fa      	ldr	r2, [r7, #12]
 8000972:	4313      	orrs	r3, r2
 8000974:	60fb      	str	r3, [r7, #12]
        AFIO->EXTICR[position >> 2u] = temp;
 8000976:	492f      	ldr	r1, [pc, #188]	; (8000a34 <HAL_GPIO_Init+0x2b0>)
 8000978:	6a7b      	ldr	r3, [r7, #36]	; 0x24
 800097a:	089b      	lsrs	r3, r3, #2
 800097c:	3302      	adds	r3, #2
 800097e:	68fa      	ldr	r2, [r7, #12]
 8000980:	f841 2023 	str.w	r2, [r1, r3, lsl #2]


        /* Enable or disable the rising trigger */
        if ((GPIO_Init->Mode & RISING_EDGE) == RISING_EDGE)
 8000984:	683b      	ldr	r3, [r7, #0]
 8000986:	685b      	ldr	r3, [r3, #4]
 8000988:	f403 1380 	and.w	r3, r3, #1048576	; 0x100000
 800098c:	2b00      	cmp	r3, #0
 800098e:	d006      	beq.n	800099e <HAL_GPIO_Init+0x21a>
        {
          SET_BIT(EXTI->RTSR, iocurrent);
 8000990:	4b2c      	ldr	r3, [pc, #176]	; (8000a44 <HAL_GPIO_Init+0x2c0>)
 8000992:	689a      	ldr	r2, [r3, #8]
 8000994:	492b      	ldr	r1, [pc, #172]	; (8000a44 <HAL_GPIO_Init+0x2c0>)
 8000996:	69bb      	ldr	r3, [r7, #24]
 8000998:	4313      	orrs	r3, r2
 800099a:	608b      	str	r3, [r1, #8]
 800099c:	e006      	b.n	80009ac <HAL_GPIO_Init+0x228>
        }
        else
        {
          CLEAR_BIT(EXTI->RTSR, iocurrent);
 800099e:	4b29      	ldr	r3, [pc, #164]	; (8000a44 <HAL_GPIO_Init+0x2c0>)
 80009a0:	689a      	ldr	r2, [r3, #8]
 80009a2:	69bb      	ldr	r3, [r7, #24]
 80009a4:	43db      	mvns	r3, r3
 80009a6:	4927      	ldr	r1, [pc, #156]	; (8000a44 <HAL_GPIO_Init+0x2c0>)
 80009a8:	4013      	ands	r3, r2
 80009aa:	608b      	str	r3, [r1, #8]
        }

        /* Enable or disable the falling trigger */
        if ((GPIO_Init->Mode & FALLING_EDGE) == FALLING_EDGE)
 80009ac:	683b      	ldr	r3, [r7, #0]
 80009ae:	685b      	ldr	r3, [r3, #4]
 80009b0:	f403 1300 	and.w	r3, r3, #2097152	; 0x200000
 80009b4:	2b00      	cmp	r3, #0
 80009b6:	d006      	beq.n	80009c6 <HAL_GPIO_Init+0x242>
        {
          SET_BIT(EXTI->FTSR, iocurrent);
 80009b8:	4b22      	ldr	r3, [pc, #136]	; (8000a44 <HAL_GPIO_Init+0x2c0>)
 80009ba:	68da      	ldr	r2, [r3, #12]
 80009bc:	4921      	ldr	r1, [pc, #132]	; (8000a44 <HAL_GPIO_Init+0x2c0>)
 80009be:	69bb      	ldr	r3, [r7, #24]
 80009c0:	4313      	orrs	r3, r2
 80009c2:	60cb      	str	r3, [r1, #12]
 80009c4:	e006      	b.n	80009d4 <HAL_GPIO_Init+0x250>
        }
        else
        {
          CLEAR_BIT(EXTI->FTSR, iocurrent);
 80009c6:	4b1f      	ldr	r3, [pc, #124]	; (8000a44 <HAL_GPIO_Init+0x2c0>)
 80009c8:	68da      	ldr	r2, [r3, #12]
 80009ca:	69bb      	ldr	r3, [r7, #24]
 80009cc:	43db      	mvns	r3, r3
 80009ce:	491d      	ldr	r1, [pc, #116]	; (8000a44 <HAL_GPIO_Init+0x2c0>)
 80009d0:	4013      	ands	r3, r2
 80009d2:	60cb      	str	r3, [r1, #12]
        }

        /* Configure the event mask */
        if ((GPIO_Init->Mode & GPIO_MODE_EVT) == GPIO_MODE_EVT)
 80009d4:	683b      	ldr	r3, [r7, #0]
 80009d6:	685b      	ldr	r3, [r3, #4]
 80009d8:	f403 3300 	and.w	r3, r3, #131072	; 0x20000
 80009dc:	2b00      	cmp	r3, #0
 80009de:	d006      	beq.n	80009ee <HAL_GPIO_Init+0x26a>
        {
          SET_BIT(EXTI->EMR, iocurrent);
 80009e0:	4b18      	ldr	r3, [pc, #96]	; (8000a44 <HAL_GPIO_Init+0x2c0>)
 80009e2:	685a      	ldr	r2, [r3, #4]
 80009e4:	4917      	ldr	r1, [pc, #92]	; (8000a44 <HAL_GPIO_Init+0x2c0>)
 80009e6:	69bb      	ldr	r3, [r7, #24]
 80009e8:	4313      	orrs	r3, r2
 80009ea:	604b      	str	r3, [r1, #4]
 80009ec:	e006      	b.n	80009fc <HAL_GPIO_Init+0x278>
        }
        else
        {
          CLEAR_BIT(EXTI->EMR, iocurrent);
 80009ee:	4b15      	ldr	r3, [pc, #84]	; (8000a44 <HAL_GPIO_Init+0x2c0>)
 80009f0:	685a      	ldr	r2, [r3, #4]
 80009f2:	69bb      	ldr	r3, [r7, #24]
 80009f4:	43db      	mvns	r3, r3
 80009f6:	4913      	ldr	r1, [pc, #76]	; (8000a44 <HAL_GPIO_Init+0x2c0>)
 80009f8:	4013      	ands	r3, r2
 80009fa:	604b      	str	r3, [r1, #4]
        }

        /* Configure the interrupt mask */
        if ((GPIO_Init->Mode & GPIO_MODE_IT) == GPIO_MODE_IT)
 80009fc:	683b      	ldr	r3, [r7, #0]
 80009fe:	685b      	ldr	r3, [r3, #4]
 8000a00:	f403 3380 	and.w	r3, r3, #65536	; 0x10000
 8000a04:	2b00      	cmp	r3, #0
 8000a06:	d01f      	beq.n	8000a48 <HAL_GPIO_Init+0x2c4>
        {
          SET_BIT(EXTI->IMR, iocurrent);
 8000a08:	4b0e      	ldr	r3, [pc, #56]	; (8000a44 <HAL_GPIO_Init+0x2c0>)
 8000a0a:	681a      	ldr	r2, [r3, #0]
 8000a0c:	490d      	ldr	r1, [pc, #52]	; (8000a44 <HAL_GPIO_Init+0x2c0>)
 8000a0e:	69bb      	ldr	r3, [r7, #24]
 8000a10:	4313      	orrs	r3, r2
 8000a12:	600b      	str	r3, [r1, #0]
 8000a14:	e01f      	b.n	8000a56 <HAL_GPIO_Init+0x2d2>
 8000a16:	bf00      	nop
 8000a18:	10320000 	.word	0x10320000
 8000a1c:	10310000 	.word	0x10310000
 8000a20:	10220000 	.word	0x10220000
 8000a24:	10210000 	.word	0x10210000
 8000a28:	10120000 	.word	0x10120000
 8000a2c:	10110000 	.word	0x10110000
 8000a30:	40021000 	.word	0x40021000
 8000a34:	40010000 	.word	0x40010000
 8000a38:	40010800 	.word	0x40010800
 8000a3c:	40010c00 	.word	0x40010c00
 8000a40:	40011000 	.word	0x40011000
 8000a44:	40010400 	.word	0x40010400
        }
        else
        {
          CLEAR_BIT(EXTI->IMR, iocurrent);
 8000a48:	4b0b      	ldr	r3, [pc, #44]	; (8000a78 <HAL_GPIO_Init+0x2f4>)
 8000a4a:	681a      	ldr	r2, [r3, #0]
 8000a4c:	69bb      	ldr	r3, [r7, #24]
 8000a4e:	43db      	mvns	r3, r3
 8000a50:	4909      	ldr	r1, [pc, #36]	; (8000a78 <HAL_GPIO_Init+0x2f4>)
 8000a52:	4013      	ands	r3, r2
 8000a54:	600b      	str	r3, [r1, #0]
        }
      }
    }

	position++;
 8000a56:	6a7b      	ldr	r3, [r7, #36]	; 0x24
 8000a58:	3301      	adds	r3, #1
 8000a5a:	627b      	str	r3, [r7, #36]	; 0x24
  while (((GPIO_Init->Pin) >> position) != 0x00u)
 8000a5c:	683b      	ldr	r3, [r7, #0]
 8000a5e:	681a      	ldr	r2, [r3, #0]
 8000a60:	6a7b      	ldr	r3, [r7, #36]	; 0x24
 8000a62:	fa22 f303 	lsr.w	r3, r2, r3
 8000a66:	2b00      	cmp	r3, #0
 8000a68:	f47f ae96 	bne.w	8000798 <HAL_GPIO_Init+0x14>
  }
}
 8000a6c:	bf00      	nop
 8000a6e:	bf00      	nop
 8000a70:	372c      	adds	r7, #44	; 0x2c
 8000a72:	46bd      	mov	sp, r7
 8000a74:	bc80      	pop	{r7}
 8000a76:	4770      	bx	lr
 8000a78:	40010400 	.word	0x40010400

08000a7c <HAL_GPIO_WritePin>:
  *            @arg GPIO_PIN_RESET: to clear the port pin
  *            @arg GPIO_PIN_SET: to set the port pin
  * @retval None
  */
void HAL_GPIO_WritePin(GPIO_TypeDef *GPIOx, uint16_t GPIO_Pin, GPIO_PinState PinState)
{
 8000a7c:	b480      	push	{r7}
 8000a7e:	b083      	sub	sp, #12
 8000a80:	af00      	add	r7, sp, #0
 8000a82:	6078      	str	r0, [r7, #4]
 8000a84:	460b      	mov	r3, r1
 8000a86:	807b      	strh	r3, [r7, #2]
 8000a88:	4613      	mov	r3, r2
 8000a8a:	707b      	strb	r3, [r7, #1]
  /* Check the parameters */
  assert_param(IS_GPIO_PIN(GPIO_Pin));
  assert_param(IS_GPIO_PIN_ACTION(PinState));

  if (PinState != GPIO_PIN_RESET)
 8000a8c:	787b      	ldrb	r3, [r7, #1]
 8000a8e:	2b00      	cmp	r3, #0
 8000a90:	d003      	beq.n	8000a9a <HAL_GPIO_WritePin+0x1e>
  {
    GPIOx->BSRR = GPIO_Pin;
 8000a92:	887a      	ldrh	r2, [r7, #2]
 8000a94:	687b      	ldr	r3, [r7, #4]
 8000a96:	611a      	str	r2, [r3, #16]
  }
  else
  {
    GPIOx->BSRR = (uint32_t)GPIO_Pin << 16u;
  }
}
 8000a98:	e003      	b.n	8000aa2 <HAL_GPIO_WritePin+0x26>
    GPIOx->BSRR = (uint32_t)GPIO_Pin << 16u;
 8000a9a:	887b      	ldrh	r3, [r7, #2]
 8000a9c:	041a      	lsls	r2, r3, #16
 8000a9e:	687b      	ldr	r3, [r7, #4]
 8000aa0:	611a      	str	r2, [r3, #16]
}
 8000aa2:	bf00      	nop
 8000aa4:	370c      	adds	r7, #12
 8000aa6:	46bd      	mov	sp, r7
 8000aa8:	bc80      	pop	{r7}
 8000aaa:	4770      	bx	lr

08000aac <HAL_GPIO_TogglePin>:
  * @param  GPIOx: where x can be (A..G depending on device used) to select the GPIO peripheral
  * @param  GPIO_Pin: Specifies the pins to be toggled.
  * @retval None
  */
void HAL_GPIO_TogglePin(GPIO_TypeDef *GPIOx, uint16_t GPIO_Pin)
{
 8000aac:	b480      	push	{r7}
 8000aae:	b085      	sub	sp, #20
 8000ab0:	af00      	add	r7, sp, #0
 8000ab2:	6078      	str	r0, [r7, #4]
 8000ab4:	460b      	mov	r3, r1
 8000ab6:	807b      	strh	r3, [r7, #2]

  /* Check the parameters */
  assert_param(IS_GPIO_PIN(GPIO_Pin));

  /* get current Output Data Register value */
  odr = GPIOx->ODR;
 8000ab8:	687b      	ldr	r3, [r7, #4]
 8000aba:	68db      	ldr	r3, [r3, #12]
 8000abc:	60fb      	str	r3, [r7, #12]

  /* Set selected pins that were at low level, and reset ones that were high */
  GPIOx->BSRR = ((odr & GPIO_Pin) << GPIO_NUMBER) | (~odr & GPIO_Pin);
 8000abe:	887a      	ldrh	r2, [r7, #2]
 8000ac0:	68fb      	ldr	r3, [r7, #12]
 8000ac2:	4013      	ands	r3, r2
 8000ac4:	041a      	lsls	r2, r3, #16
 8000ac6:	68fb      	ldr	r3, [r7, #12]
 8000ac8:	43d9      	mvns	r1, r3
 8000aca:	887b      	ldrh	r3, [r7, #2]
 8000acc:	400b      	ands	r3, r1
 8000ace:	431a      	orrs	r2, r3
 8000ad0:	687b      	ldr	r3, [r7, #4]
 8000ad2:	611a      	str	r2, [r3, #16]
}
 8000ad4:	bf00      	nop
 8000ad6:	3714      	adds	r7, #20
 8000ad8:	46bd      	mov	sp, r7
 8000ada:	bc80      	pop	{r7}
 8000adc:	4770      	bx	lr
	...

08000ae0 <HAL_RCC_OscConfig>:
  *         supported by this macro. User should request a transition to HSE Off
  *         first and then HSE On or HSE Bypass.
  * @retval HAL status
  */
HAL_StatusTypeDef HAL_RCC_OscConfig(RCC_OscInitTypeDef  *RCC_OscInitStruct)
{
 8000ae0:	b580      	push	{r7, lr}
 8000ae2:	b086      	sub	sp, #24
 8000ae4:	af00      	add	r7, sp, #0
 8000ae6:	6078      	str	r0, [r7, #4]
  uint32_t tickstart;
  uint32_t pll_config;

  /* Check Null pointer */
  if (RCC_OscInitStruct == NULL)
 8000ae8:	687b      	ldr	r3, [r7, #4]
 8000aea:	2b00      	cmp	r3, #0
 8000aec:	d101      	bne.n	8000af2 <HAL_RCC_OscConfig+0x12>
  {
    return HAL_ERROR;
 8000aee:	2301      	movs	r3, #1
 8000af0:	e272      	b.n	8000fd8 <HAL_RCC_OscConfig+0x4f8>

  /* Check the parameters */
  assert_param(IS_RCC_OSCILLATORTYPE(RCC_OscInitStruct->OscillatorType));

  /*------------------------------- HSE Configuration ------------------------*/
  if (((RCC_OscInitStruct->OscillatorType) & RCC_OSCILLATORTYPE_HSE) == RCC_OSCILLATORTYPE_HSE)
 8000af2:	687b      	ldr	r3, [r7, #4]
 8000af4:	681b      	ldr	r3, [r3, #0]
 8000af6:	f003 0301 	and.w	r3, r3, #1
 8000afa:	2b00      	cmp	r3, #0
 8000afc:	f000 8087 	beq.w	8000c0e <HAL_RCC_OscConfig+0x12e>
  {
    /* Check the parameters */
    assert_param(IS_RCC_HSE(RCC_OscInitStruct->HSEState));

    /* When the HSE is used as system clock or clock source for PLL in these cases it is not allowed to be disabled */
    if ((__HAL_RCC_GET_SYSCLK_SOURCE() == RCC_SYSCLKSOURCE_STATUS_HSE)
 8000b00:	4b92      	ldr	r3, [pc, #584]	; (8000d4c <HAL_RCC_OscConfig+0x26c>)
 8000b02:	685b      	ldr	r3, [r3, #4]
 8000b04:	f003 030c 	and.w	r3, r3, #12
 8000b08:	2b04      	cmp	r3, #4
 8000b0a:	d00c      	beq.n	8000b26 <HAL_RCC_OscConfig+0x46>
        || ((__HAL_RCC_GET_SYSCLK_SOURCE() == RCC_SYSCLKSOURCE_STATUS_PLLCLK) && (__HAL_RCC_GET_PLL_OSCSOURCE() == RCC_PLLSOURCE_HSE)))
 8000b0c:	4b8f      	ldr	r3, [pc, #572]	; (8000d4c <HAL_RCC_OscConfig+0x26c>)
 8000b0e:	685b      	ldr	r3, [r3, #4]
 8000b10:	f003 030c 	and.w	r3, r3, #12
 8000b14:	2b08      	cmp	r3, #8
 8000b16:	d112      	bne.n	8000b3e <HAL_RCC_OscConfig+0x5e>
 8000b18:	4b8c      	ldr	r3, [pc, #560]	; (8000d4c <HAL_RCC_OscConfig+0x26c>)
 8000b1a:	685b      	ldr	r3, [r3, #4]
 8000b1c:	f403 3380 	and.w	r3, r3, #65536	; 0x10000
 8000b20:	f5b3 3f80 	cmp.w	r3, #65536	; 0x10000
 8000b24:	d10b      	bne.n	8000b3e <HAL_RCC_OscConfig+0x5e>
    {
      if ((__HAL_RCC_GET_FLAG(RCC_FLAG_HSERDY) != RESET) && (RCC_OscInitStruct->HSEState == RCC_HSE_OFF))
 8000b26:	4b89      	ldr	r3, [pc, #548]	; (8000d4c <HAL_RCC_OscConfig+0x26c>)
 8000b28:	681b      	ldr	r3, [r3, #0]
 8000b2a:	f403 3300 	and.w	r3, r3, #131072	; 0x20000
 8000b2e:	2b00      	cmp	r3, #0
 8000b30:	d06c      	beq.n	8000c0c <HAL_RCC_OscConfig+0x12c>
 8000b32:	687b      	ldr	r3, [r7, #4]
 8000b34:	685b      	ldr	r3, [r3, #4]
 8000b36:	2b00      	cmp	r3, #0
 8000b38:	d168      	bne.n	8000c0c <HAL_RCC_OscConfig+0x12c>
      {
        return HAL_ERROR;
 8000b3a:	2301      	movs	r3, #1
 8000b3c:	e24c      	b.n	8000fd8 <HAL_RCC_OscConfig+0x4f8>
      }
    }
    else
    {
      /* Set the new HSE configuration ---------------------------------------*/
      __HAL_RCC_HSE_CONFIG(RCC_OscInitStruct->HSEState);
 8000b3e:	687b      	ldr	r3, [r7, #4]
 8000b40:	685b      	ldr	r3, [r3, #4]
 8000b42:	f5b3 3f80 	cmp.w	r3, #65536	; 0x10000
 8000b46:	d106      	bne.n	8000b56 <HAL_RCC_OscConfig+0x76>
 8000b48:	4b80      	ldr	r3, [pc, #512]	; (8000d4c <HAL_RCC_OscConfig+0x26c>)
 8000b4a:	681b      	ldr	r3, [r3, #0]
 8000b4c:	4a7f      	ldr	r2, [pc, #508]	; (8000d4c <HAL_RCC_OscConfig+0x26c>)
 8000b4e:	f443 3380 	orr.w	r3, r3, #65536	; 0x10000
 8000b52:	6013      	str	r3, [r2, #0]
 8000b54:	e02e      	b.n	8000bb4 <HAL_RCC_OscConfig+0xd4>
 8000b56:	687b      	ldr	r3, [r7, #4]
 8000b58:	685b      	ldr	r3, [r3, #4]
 8000b5a:	2b00      	cmp	r3, #0
 8000b5c:	d10c      	bne.n	8000b78 <HAL_RCC_OscConfig+0x98>
 8000b5e:	4b7b      	ldr	r3, [pc, #492]	; (8000d4c <HAL_RCC_OscConfig+0x26c>)
 8000b60:	681b      	ldr	r3, [r3, #0]
 8000b62:	4a7a      	ldr	r2, [pc, #488]	; (8000d4c <HAL_RCC_OscConfig+0x26c>)
 8000b64:	f423 3380 	bic.w	r3, r3, #65536	; 0x10000
 8000b68:	6013      	str	r3, [r2, #0]
 8000b6a:	4b78      	ldr	r3, [pc, #480]	; (8000d4c <HAL_RCC_OscConfig+0x26c>)
 8000b6c:	681b      	ldr	r3, [r3, #0]
 8000b6e:	4a77      	ldr	r2, [pc, #476]	; (8000d4c <HAL_RCC_OscConfig+0x26c>)
 8000b70:	f423 2380 	bic.w	r3, r3, #262144	; 0x40000
 8000b74:	6013      	str	r3, [r2, #0]
 8000b76:	e01d      	b.n	8000bb4 <HAL_RCC_OscConfig+0xd4>
 8000b78:	687b      	ldr	r3, [r7, #4]
 8000b7a:	685b      	ldr	r3, [r3, #4]
 8000b7c:	f5b3 2fa0 	cmp.w	r3, #327680	; 0x50000
 8000b80:	d10c      	bne.n	8000b9c <HAL_RCC_OscConfig+0xbc>
 8000b82:	4b72      	ldr	r3, [pc, #456]	; (8000d4c <HAL_RCC_OscConfig+0x26c>)
 8000b84:	681b      	ldr	r3, [r3, #0]
 8000b86:	4a71      	ldr	r2, [pc, #452]	; (8000d4c <HAL_RCC_OscConfig+0x26c>)
 8000b88:	f443 2380 	orr.w	r3, r3, #262144	; 0x40000
 8000b8c:	6013      	str	r3, [r2, #0]
 8000b8e:	4b6f      	ldr	r3, [pc, #444]	; (8000d4c <HAL_RCC_OscConfig+0x26c>)
 8000b90:	681b      	ldr	r3, [r3, #0]
 8000b92:	4a6e      	ldr	r2, [pc, #440]	; (8000d4c <HAL_RCC_OscConfig+0x26c>)
 8000b94:	f443 3380 	orr.w	r3, r3, #65536	; 0x10000
 8000b98:	6013      	str	r3, [r2, #0]
 8000b9a:	e00b      	b.n	8000bb4 <HAL_RCC_OscConfig+0xd4>
 8000b9c:	4b6b      	ldr	r3, [pc, #428]	; (8000d4c <HAL_RCC_OscConfig+0x26c>)
 8000b9e:	681b      	ldr	r3, [r3, #0]
 8000ba0:	4a6a      	ldr	r2, [pc, #424]	; (8000d4c <HAL_RCC_OscConfig+0x26c>)
 8000ba2:	f423 3380 	bic.w	r3, r3, #65536	; 0x10000
 8000ba6:	6013      	str	r3, [r2, #0]
 8000ba8:	4b68      	ldr	r3, [pc, #416]	; (8000d4c <HAL_RCC_OscConfig+0x26c>)
 8000baa:	681b      	ldr	r3, [r3, #0]
 8000bac:	4a67      	ldr	r2, [pc, #412]	; (8000d4c <HAL_RCC_OscConfig+0x26c>)
 8000bae:	f423 2380 	bic.w	r3, r3, #262144	; 0x40000
 8000bb2:	6013      	str	r3, [r2, #0]


      /* Check the HSE State */
      if (RCC_OscInitStruct->HSEState != RCC_HSE_OFF)
 8000bb4:	687b      	ldr	r3, [r7, #4]
 8000bb6:	685b      	ldr	r3, [r3, #4]
 8000bb8:	2b00      	cmp	r3, #0
 8000bba:	d013      	beq.n	8000be4 <HAL_RCC_OscConfig+0x104>
      {
        /* Get Start Tick */
        tickstart = HAL_GetTick();
 8000bbc:	f7ff fca6 	bl	800050c <HAL_GetTick>
 8000bc0:	6138      	str	r0, [r7, #16]

        /* Wait till HSE is ready */
        while (__HAL_RCC_GET_FLAG(RCC_FLAG_HSERDY) == RESET)
 8000bc2:	e008      	b.n	8000bd6 <HAL_RCC_OscConfig+0xf6>
        {
          if ((HAL_GetTick() - tickstart) > HSE_TIMEOUT_VALUE)
 8000bc4:	f7ff fca2 	bl	800050c <HAL_GetTick>
 8000bc8:	4602      	mov	r2, r0
 8000bca:	693b      	ldr	r3, [r7, #16]
 8000bcc:	1ad3      	subs	r3, r2, r3
 8000bce:	2b64      	cmp	r3, #100	; 0x64
 8000bd0:	d901      	bls.n	8000bd6 <HAL_RCC_OscConfig+0xf6>
          {
            return HAL_TIMEOUT;
 8000bd2:	2303      	movs	r3, #3
 8000bd4:	e200      	b.n	8000fd8 <HAL_RCC_OscConfig+0x4f8>
        while (__HAL_RCC_GET_FLAG(RCC_FLAG_HSERDY) == RESET)
 8000bd6:	4b5d      	ldr	r3, [pc, #372]	; (8000d4c <HAL_RCC_OscConfig+0x26c>)
 8000bd8:	681b      	ldr	r3, [r3, #0]
 8000bda:	f403 3300 	and.w	r3, r3, #131072	; 0x20000
 8000bde:	2b00      	cmp	r3, #0
 8000be0:	d0f0      	beq.n	8000bc4 <HAL_RCC_OscConfig+0xe4>
 8000be2:	e014      	b.n	8000c0e <HAL_RCC_OscConfig+0x12e>
        }
      }
      else
      {
        /* Get Start Tick */
        tickstart = HAL_GetTick();
 8000be4:	f7ff fc92 	bl	800050c <HAL_GetTick>
 8000be8:	6138      	str	r0, [r7, #16]

        /* Wait till HSE is disabled */
        while (__HAL_RCC_GET_FLAG(RCC_FLAG_HSERDY) != RESET)
 8000bea:	e008      	b.n	8000bfe <HAL_RCC_OscConfig+0x11e>
        {
          if ((HAL_GetTick() - tickstart) > HSE_TIMEOUT_VALUE)
 8000bec:	f7ff fc8e 	bl	800050c <HAL_GetTick>
 8000bf0:	4602      	mov	r2, r0
 8000bf2:	693b      	ldr	r3, [r7, #16]
 8000bf4:	1ad3      	subs	r3, r2, r3
 8000bf6:	2b64      	cmp	r3, #100	; 0x64
 8000bf8:	d901      	bls.n	8000bfe <HAL_RCC_OscConfig+0x11e>
          {
            return HAL_TIMEOUT;
 8000bfa:	2303      	movs	r3, #3
 8000bfc:	e1ec      	b.n	8000fd8 <HAL_RCC_OscConfig+0x4f8>
        while (__HAL_RCC_GET_FLAG(RCC_FLAG_HSERDY) != RESET)
 8000bfe:	4b53      	ldr	r3, [pc, #332]	; (8000d4c <HAL_RCC_OscConfig+0x26c>)
 8000c00:	681b      	ldr	r3, [r3, #0]
 8000c02:	f403 3300 	and.w	r3, r3, #131072	; 0x20000
 8000c06:	2b00      	cmp	r3, #0
 8000c08:	d1f0      	bne.n	8000bec <HAL_RCC_OscConfig+0x10c>
 8000c0a:	e000      	b.n	8000c0e <HAL_RCC_OscConfig+0x12e>
      if ((__HAL_RCC_GET_FLAG(RCC_FLAG_HSERDY) != RESET) && (RCC_OscInitStruct->HSEState == RCC_HSE_OFF))
 8000c0c:	bf00      	nop
        }
      }
    }
  }
  /*----------------------------- HSI Configuration --------------------------*/
  if (((RCC_OscInitStruct->OscillatorType) & RCC_OSCILLATORTYPE_HSI) == RCC_OSCILLATORTYPE_HSI)
 8000c0e:	687b      	ldr	r3, [r7, #4]
 8000c10:	681b      	ldr	r3, [r3, #0]
 8000c12:	f003 0302 	and.w	r3, r3, #2
 8000c16:	2b00      	cmp	r3, #0
 8000c18:	d063      	beq.n	8000ce2 <HAL_RCC_OscConfig+0x202>
    /* Check the parameters */
    assert_param(IS_RCC_HSI(RCC_OscInitStruct->HSIState));
    assert_param(IS_RCC_CALIBRATION_VALUE(RCC_OscInitStruct->HSICalibrationValue));

    /* Check if HSI is used as system clock or as PLL source when PLL is selected as system clock */
    if ((__HAL_RCC_GET_SYSCLK_SOURCE() == RCC_SYSCLKSOURCE_STATUS_HSI)
 8000c1a:	4b4c      	ldr	r3, [pc, #304]	; (8000d4c <HAL_RCC_OscConfig+0x26c>)
 8000c1c:	685b      	ldr	r3, [r3, #4]
 8000c1e:	f003 030c 	and.w	r3, r3, #12
 8000c22:	2b00      	cmp	r3, #0
 8000c24:	d00b      	beq.n	8000c3e <HAL_RCC_OscConfig+0x15e>
        || ((__HAL_RCC_GET_SYSCLK_SOURCE() == RCC_SYSCLKSOURCE_STATUS_PLLCLK) && (__HAL_RCC_GET_PLL_OSCSOURCE() == RCC_PLLSOURCE_HSI_DIV2)))
 8000c26:	4b49      	ldr	r3, [pc, #292]	; (8000d4c <HAL_RCC_OscConfig+0x26c>)
 8000c28:	685b      	ldr	r3, [r3, #4]
 8000c2a:	f003 030c 	and.w	r3, r3, #12
 8000c2e:	2b08      	cmp	r3, #8
 8000c30:	d11c      	bne.n	8000c6c <HAL_RCC_OscConfig+0x18c>
 8000c32:	4b46      	ldr	r3, [pc, #280]	; (8000d4c <HAL_RCC_OscConfig+0x26c>)
 8000c34:	685b      	ldr	r3, [r3, #4]
 8000c36:	f403 3380 	and.w	r3, r3, #65536	; 0x10000
 8000c3a:	2b00      	cmp	r3, #0
 8000c3c:	d116      	bne.n	8000c6c <HAL_RCC_OscConfig+0x18c>
    {
      /* When HSI is used as system clock it will not disabled */
      if ((__HAL_RCC_GET_FLAG(RCC_FLAG_HSIRDY) != RESET) && (RCC_OscInitStruct->HSIState != RCC_HSI_ON))
 8000c3e:	4b43      	ldr	r3, [pc, #268]	; (8000d4c <HAL_RCC_OscConfig+0x26c>)
 8000c40:	681b      	ldr	r3, [r3, #0]
 8000c42:	f003 0302 	and.w	r3, r3, #2
 8000c46:	2b00      	cmp	r3, #0
 8000c48:	d005      	beq.n	8000c56 <HAL_RCC_OscConfig+0x176>
 8000c4a:	687b      	ldr	r3, [r7, #4]
 8000c4c:	691b      	ldr	r3, [r3, #16]
 8000c4e:	2b01      	cmp	r3, #1
 8000c50:	d001      	beq.n	8000c56 <HAL_RCC_OscConfig+0x176>
      {
        return HAL_ERROR;
 8000c52:	2301      	movs	r3, #1
 8000c54:	e1c0      	b.n	8000fd8 <HAL_RCC_OscConfig+0x4f8>
      }
      /* Otherwise, just the calibration is allowed */
      else
      {
        /* Adjusts the Internal High Speed oscillator (HSI) calibration value.*/
        __HAL_RCC_HSI_CALIBRATIONVALUE_ADJUST(RCC_OscInitStruct->HSICalibrationValue);
 8000c56:	4b3d      	ldr	r3, [pc, #244]	; (8000d4c <HAL_RCC_OscConfig+0x26c>)
 8000c58:	681b      	ldr	r3, [r3, #0]
 8000c5a:	f023 02f8 	bic.w	r2, r3, #248	; 0xf8
 8000c5e:	687b      	ldr	r3, [r7, #4]
 8000c60:	695b      	ldr	r3, [r3, #20]
 8000c62:	00db      	lsls	r3, r3, #3
 8000c64:	4939      	ldr	r1, [pc, #228]	; (8000d4c <HAL_RCC_OscConfig+0x26c>)
 8000c66:	4313      	orrs	r3, r2
 8000c68:	600b      	str	r3, [r1, #0]
      if ((__HAL_RCC_GET_FLAG(RCC_FLAG_HSIRDY) != RESET) && (RCC_OscInitStruct->HSIState != RCC_HSI_ON))
 8000c6a:	e03a      	b.n	8000ce2 <HAL_RCC_OscConfig+0x202>
      }
    }
    else
    {
      /* Check the HSI State */
      if (RCC_OscInitStruct->HSIState != RCC_HSI_OFF)
 8000c6c:	687b      	ldr	r3, [r7, #4]
 8000c6e:	691b      	ldr	r3, [r3, #16]
 8000c70:	2b00      	cmp	r3, #0
 8000c72:	d020      	beq.n	8000cb6 <HAL_RCC_OscConfig+0x1d6>
      {
        /* Enable the Internal High Speed oscillator (HSI). */
        __HAL_RCC_HSI_ENABLE();
 8000c74:	4b36      	ldr	r3, [pc, #216]	; (8000d50 <HAL_RCC_OscConfig+0x270>)
 8000c76:	2201      	movs	r2, #1
 8000c78:	601a      	str	r2, [r3, #0]

        /* Get Start Tick */
        tickstart = HAL_GetTick();
 8000c7a:	f7ff fc47 	bl	800050c <HAL_GetTick>
 8000c7e:	6138      	str	r0, [r7, #16]

        /* Wait till HSI is ready */
        while (__HAL_RCC_GET_FLAG(RCC_FLAG_HSIRDY) == RESET)
 8000c80:	e008      	b.n	8000c94 <HAL_RCC_OscConfig+0x1b4>
        {
          if ((HAL_GetTick() - tickstart) > HSI_TIMEOUT_VALUE)
 8000c82:	f7ff fc43 	bl	800050c <HAL_GetTick>
 8000c86:	4602      	mov	r2, r0
 8000c88:	693b      	ldr	r3, [r7, #16]
 8000c8a:	1ad3      	subs	r3, r2, r3
 8000c8c:	2b02      	cmp	r3, #2
 8000c8e:	d901      	bls.n	8000c94 <HAL_RCC_OscConfig+0x1b4>
          {
            return HAL_TIMEOUT;
 8000c90:	2303      	movs	r3, #3
 8000c92:	e1a1      	b.n	8000fd8 <HAL_RCC_OscConfig+0x4f8>
        while (__HAL_RCC_GET_FLAG(RCC_FLAG_HSIRDY) == RESET)
 8000c94:	4b2d      	ldr	r3, [pc, #180]	; (8000d4c <HAL_RCC_OscConfig+0x26c>)
 8000c96:	681b      	ldr	r3, [r3, #0]
 8000c98:	f003 0302 	and.w	r3, r3, #2
 8000c9c:	2b00      	cmp	r3, #0
 8000c9e:	d0f0      	beq.n	8000c82 <HAL_RCC_OscConfig+0x1a2>
          }
        }

        /* Adjusts the Internal High Speed oscillator (HSI) calibration value.*/
        __HAL_RCC_HSI_CALIBRATIONVALUE_ADJUST(RCC_OscInitStruct->HSICalibrationValue);
 8000ca0:	4b2a      	ldr	r3, [pc, #168]	; (8000d4c <HAL_RCC_OscConfig+0x26c>)
 8000ca2:	681b      	ldr	r3, [r3, #0]
 8000ca4:	f023 02f8 	bic.w	r2, r3, #248	; 0xf8
 8000ca8:	687b      	ldr	r3, [r7, #4]
 8000caa:	695b      	ldr	r3, [r3, #20]
 8000cac:	00db      	lsls	r3, r3, #3
 8000cae:	4927      	ldr	r1, [pc, #156]	; (8000d4c <HAL_RCC_OscConfig+0x26c>)
 8000cb0:	4313      	orrs	r3, r2
 8000cb2:	600b      	str	r3, [r1, #0]
 8000cb4:	e015      	b.n	8000ce2 <HAL_RCC_OscConfig+0x202>
      }
      else
      {
        /* Disable the Internal High Speed oscillator (HSI). */
        __HAL_RCC_HSI_DISABLE();
 8000cb6:	4b26      	ldr	r3, [pc, #152]	; (8000d50 <HAL_RCC_OscConfig+0x270>)
 8000cb8:	2200      	movs	r2, #0
 8000cba:	601a      	str	r2, [r3, #0]

        /* Get Start Tick */
        tickstart = HAL_GetTick();
 8000cbc:	f7ff fc26 	bl	800050c <HAL_GetTick>
 8000cc0:	6138      	str	r0, [r7, #16]

        /* Wait till HSI is disabled */
        while (__HAL_RCC_GET_FLAG(RCC_FLAG_HSIRDY) != RESET)
 8000cc2:	e008      	b.n	8000cd6 <HAL_RCC_OscConfig+0x1f6>
        {
          if ((HAL_GetTick() - tickstart) > HSI_TIMEOUT_VALUE)
 8000cc4:	f7ff fc22 	bl	800050c <HAL_GetTick>
 8000cc8:	4602      	mov	r2, r0
 8000cca:	693b      	ldr	r3, [r7, #16]
 8000ccc:	1ad3      	subs	r3, r2, r3
 8000cce:	2b02      	cmp	r3, #2
 8000cd0:	d901      	bls.n	8000cd6 <HAL_RCC_OscConfig+0x1f6>
          {
            return HAL_TIMEOUT;
 8000cd2:	2303      	movs	r3, #3
 8000cd4:	e180      	b.n	8000fd8 <HAL_RCC_OscConfig+0x4f8>
        while (__HAL_RCC_GET_FLAG(RCC_FLAG_HSIRDY) != RESET)
 8000cd6:	4b1d      	ldr	r3, [pc, #116]	; (8000d4c <HAL_RCC_OscConfig+0x26c>)
 8000cd8:	681b      	ldr	r3, [r3, #0]
 8000cda:	f003 0302 	and.w	r3, r3, #2
 8000cde:	2b00      	cmp	r3, #0
 8000ce0:	d1f0      	bne.n	8000cc4 <HAL_RCC_OscConfig+0x1e4>
        }
      }
    }
  }
  /*------------------------------ LSI Configuration -------------------------*/
  if (((RCC_OscInitStruct->OscillatorType) & RCC_OSCILLATORTYPE_LSI) == RCC_OSCILLATORTYPE_LSI)
 8000ce2:	687b      	ldr	r3, [r7, #4]
 8000ce4:	681b      	ldr	r3, [r3, #0]
 8000ce6:	f003 0308 	and.w	r3, r3, #8
 8000cea:	2b00      	cmp	r3, #0
 8000cec:	d03a      	beq.n	8000d64 <HAL_RCC_OscConfig+0x284>
  {
    /* Check the parameters */
    assert_param(IS_RCC_LSI(RCC_OscInitStruct->LSIState));

    /* Check the LSI State */
    if (RCC_OscInitStruct->LSIState != RCC_LSI_OFF)
 8000cee:	687b      	ldr	r3, [r7, #4]
 8000cf0:	699b      	ldr	r3, [r3, #24]
 8000cf2:	2b00      	cmp	r3, #0
 8000cf4:	d019      	beq.n	8000d2a <HAL_RCC_OscConfig+0x24a>
    {
      /* Enable the Internal Low Speed oscillator (LSI). */
      __HAL_RCC_LSI_ENABLE();
 8000cf6:	4b17      	ldr	r3, [pc, #92]	; (8000d54 <HAL_RCC_OscConfig+0x274>)
 8000cf8:	2201      	movs	r2, #1
 8000cfa:	601a      	str	r2, [r3, #0]

      /* Get Start Tick */
      tickstart = HAL_GetTick();
 8000cfc:	f7ff fc06 	bl	800050c <HAL_GetTick>
 8000d00:	6138      	str	r0, [r7, #16]

      /* Wait till LSI is ready */
      while (__HAL_RCC_GET_FLAG(RCC_FLAG_LSIRDY) == RESET)
 8000d02:	e008      	b.n	8000d16 <HAL_RCC_OscConfig+0x236>
      {
        if ((HAL_GetTick() - tickstart) > LSI_TIMEOUT_VALUE)
 8000d04:	f7ff fc02 	bl	800050c <HAL_GetTick>
 8000d08:	4602      	mov	r2, r0
 8000d0a:	693b      	ldr	r3, [r7, #16]
 8000d0c:	1ad3      	subs	r3, r2, r3
 8000d0e:	2b02      	cmp	r3, #2
 8000d10:	d901      	bls.n	8000d16 <HAL_RCC_OscConfig+0x236>
        {
          return HAL_TIMEOUT;
 8000d12:	2303      	movs	r3, #3
 8000d14:	e160      	b.n	8000fd8 <HAL_RCC_OscConfig+0x4f8>
      while (__HAL_RCC_GET_FLAG(RCC_FLAG_LSIRDY) == RESET)
 8000d16:	4b0d      	ldr	r3, [pc, #52]	; (8000d4c <HAL_RCC_OscConfig+0x26c>)
 8000d18:	6a5b      	ldr	r3, [r3, #36]	; 0x24
 8000d1a:	f003 0302 	and.w	r3, r3, #2
 8000d1e:	2b00      	cmp	r3, #0
 8000d20:	d0f0      	beq.n	8000d04 <HAL_RCC_OscConfig+0x224>
        }
      }
      /*  To have a fully stabilized clock in the specified range, a software delay of 1ms
          should be added.*/
      RCC_Delay(1);
 8000d22:	2001      	movs	r0, #1
 8000d24:	f000 fa9c 	bl	8001260 <RCC_Delay>
 8000d28:	e01c      	b.n	8000d64 <HAL_RCC_OscConfig+0x284>
    }
    else
    {
      /* Disable the Internal Low Speed oscillator (LSI). */
      __HAL_RCC_LSI_DISABLE();
 8000d2a:	4b0a      	ldr	r3, [pc, #40]	; (8000d54 <HAL_RCC_OscConfig+0x274>)
 8000d2c:	2200      	movs	r2, #0
 8000d2e:	601a      	str	r2, [r3, #0]

      /* Get Start Tick */
      tickstart = HAL_GetTick();
 8000d30:	f7ff fbec 	bl	800050c <HAL_GetTick>
 8000d34:	6138      	str	r0, [r7, #16]

      /* Wait till LSI is disabled */
      while (__HAL_RCC_GET_FLAG(RCC_FLAG_LSIRDY) != RESET)
 8000d36:	e00f      	b.n	8000d58 <HAL_RCC_OscConfig+0x278>
      {
        if ((HAL_GetTick() - tickstart) > LSI_TIMEOUT_VALUE)
 8000d38:	f7ff fbe8 	bl	800050c <HAL_GetTick>
 8000d3c:	4602      	mov	r2, r0
 8000d3e:	693b      	ldr	r3, [r7, #16]
 8000d40:	1ad3      	subs	r3, r2, r3
 8000d42:	2b02      	cmp	r3, #2
 8000d44:	d908      	bls.n	8000d58 <HAL_RCC_OscConfig+0x278>
        {
          return HAL_TIMEOUT;
 8000d46:	2303      	movs	r3, #3
 8000d48:	e146      	b.n	8000fd8 <HAL_RCC_OscConfig+0x4f8>
 8000d4a:	bf00      	nop
 8000d4c:	40021000 	.word	0x40021000
 8000d50:	42420000 	.word	0x42420000
 8000d54:	42420480 	.word	0x42420480
      while (__HAL_RCC_GET_FLAG(RCC_FLAG_LSIRDY) != RESET)
 8000d58:	4b92      	ldr	r3, [pc, #584]	; (8000fa4 <HAL_RCC_OscConfig+0x4c4>)
 8000d5a:	6a5b      	ldr	r3, [r3, #36]	; 0x24
 8000d5c:	f003 0302 	and.w	r3, r3, #2
 8000d60:	2b00      	cmp	r3, #0
 8000d62:	d1e9      	bne.n	8000d38 <HAL_RCC_OscConfig+0x258>
        }
      }
    }
  }
  /*------------------------------ LSE Configuration -------------------------*/
  if (((RCC_OscInitStruct->OscillatorType) & RCC_OSCILLATORTYPE_LSE) == RCC_OSCILLATORTYPE_LSE)
 8000d64:	687b      	ldr	r3, [r7, #4]
 8000d66:	681b      	ldr	r3, [r3, #0]
 8000d68:	f003 0304 	and.w	r3, r3, #4
 8000d6c:	2b00      	cmp	r3, #0
 8000d6e:	f000 80a6 	beq.w	8000ebe <HAL_RCC_OscConfig+0x3de>
  {
    FlagStatus       pwrclkchanged = RESET;
 8000d72:	2300      	movs	r3, #0
 8000d74:	75fb      	strb	r3, [r7, #23]
    /* Check the parameters */
    assert_param(IS_RCC_LSE(RCC_OscInitStruct->LSEState));

    /* Update LSE configuration in Backup Domain control register    */
    /* Requires to enable write access to Backup Domain of necessary */
    if (__HAL_RCC_PWR_IS_CLK_DISABLED())
 8000d76:	4b8b      	ldr	r3, [pc, #556]	; (8000fa4 <HAL_RCC_OscConfig+0x4c4>)
 8000d78:	69db      	ldr	r3, [r3, #28]
 8000d7a:	f003 5380 	and.w	r3, r3, #268435456	; 0x10000000
 8000d7e:	2b00      	cmp	r3, #0
 8000d80:	d10d      	bne.n	8000d9e <HAL_RCC_OscConfig+0x2be>
    {
      __HAL_RCC_PWR_CLK_ENABLE();
 8000d82:	4b88      	ldr	r3, [pc, #544]	; (8000fa4 <HAL_RCC_OscConfig+0x4c4>)
 8000d84:	69db      	ldr	r3, [r3, #28]
 8000d86:	4a87      	ldr	r2, [pc, #540]	; (8000fa4 <HAL_RCC_OscConfig+0x4c4>)
 8000d88:	f043 5380 	orr.w	r3, r3, #268435456	; 0x10000000
 8000d8c:	61d3      	str	r3, [r2, #28]
 8000d8e:	4b85      	ldr	r3, [pc, #532]	; (8000fa4 <HAL_RCC_OscConfig+0x4c4>)
 8000d90:	69db      	ldr	r3, [r3, #28]
 8000d92:	f003 5380 	and.w	r3, r3, #268435456	; 0x10000000
 8000d96:	60bb      	str	r3, [r7, #8]
 8000d98:	68bb      	ldr	r3, [r7, #8]
      pwrclkchanged = SET;
 8000d9a:	2301      	movs	r3, #1
 8000d9c:	75fb      	strb	r3, [r7, #23]
    }

    if (HAL_IS_BIT_CLR(PWR->CR, PWR_CR_DBP))
 8000d9e:	4b82      	ldr	r3, [pc, #520]	; (8000fa8 <HAL_RCC_OscConfig+0x4c8>)
 8000da0:	681b      	ldr	r3, [r3, #0]
 8000da2:	f403 7380 	and.w	r3, r3, #256	; 0x100
 8000da6:	2b00      	cmp	r3, #0
 8000da8:	d118      	bne.n	8000ddc <HAL_RCC_OscConfig+0x2fc>
    {
      /* Enable write access to Backup domain */
      SET_BIT(PWR->CR, PWR_CR_DBP);
 8000daa:	4b7f      	ldr	r3, [pc, #508]	; (8000fa8 <HAL_RCC_OscConfig+0x4c8>)
 8000dac:	681b      	ldr	r3, [r3, #0]
 8000dae:	4a7e      	ldr	r2, [pc, #504]	; (8000fa8 <HAL_RCC_OscConfig+0x4c8>)
 8000db0:	f443 7380 	orr.w	r3, r3, #256	; 0x100
 8000db4:	6013      	str	r3, [r2, #0]

      /* Wait for Backup domain Write protection disable */
      tickstart = HAL_GetTick();
 8000db6:	f7ff fba9 	bl	800050c <HAL_GetTick>
 8000dba:	6138      	str	r0, [r7, #16]

      while (HAL_IS_BIT_CLR(PWR->CR, PWR_CR_DBP))
 8000dbc:	e008      	b.n	8000dd0 <HAL_RCC_OscConfig+0x2f0>
      {
        if ((HAL_GetTick() - tickstart) > RCC_DBP_TIMEOUT_VALUE)
 8000dbe:	f7ff fba5 	bl	800050c <HAL_GetTick>
 8000dc2:	4602      	mov	r2, r0
 8000dc4:	693b      	ldr	r3, [r7, #16]
 8000dc6:	1ad3      	subs	r3, r2, r3
 8000dc8:	2b64      	cmp	r3, #100	; 0x64
 8000dca:	d901      	bls.n	8000dd0 <HAL_RCC_OscConfig+0x2f0>
        {
          return HAL_TIMEOUT;
 8000dcc:	2303      	movs	r3, #3
 8000dce:	e103      	b.n	8000fd8 <HAL_RCC_OscConfig+0x4f8>
      while (HAL_IS_BIT_CLR(PWR->CR, PWR_CR_DBP))
 8000dd0:	4b75      	ldr	r3, [pc, #468]	; (8000fa8 <HAL_RCC_OscConfig+0x4c8>)
 8000dd2:	681b      	ldr	r3, [r3, #0]
 8000dd4:	f403 7380 	and.w	r3, r3, #256	; 0x100
 8000dd8:	2b00      	cmp	r3, #0
 8000dda:	d0f0      	beq.n	8000dbe <HAL_RCC_OscConfig+0x2de>
        }
      }
    }

    /* Set the new LSE configuration -----------------------------------------*/
    __HAL_RCC_LSE_CONFIG(RCC_OscInitStruct->LSEState);
 8000ddc:	687b      	ldr	r3, [r7, #4]
 8000dde:	68db      	ldr	r3, [r3, #12]
 8000de0:	2b01      	cmp	r3, #1
 8000de2:	d106      	bne.n	8000df2 <HAL_RCC_OscConfig+0x312>
 8000de4:	4b6f      	ldr	r3, [pc, #444]	; (8000fa4 <HAL_RCC_OscConfig+0x4c4>)
 8000de6:	6a1b      	ldr	r3, [r3, #32]
 8000de8:	4a6e      	ldr	r2, [pc, #440]	; (8000fa4 <HAL_RCC_OscConfig+0x4c4>)
 8000dea:	f043 0301 	orr.w	r3, r3, #1
 8000dee:	6213      	str	r3, [r2, #32]
 8000df0:	e02d      	b.n	8000e4e <HAL_RCC_OscConfig+0x36e>
 8000df2:	687b      	ldr	r3, [r7, #4]
 8000df4:	68db      	ldr	r3, [r3, #12]
 8000df6:	2b00      	cmp	r3, #0
 8000df8:	d10c      	bne.n	8000e14 <HAL_RCC_OscConfig+0x334>
 8000dfa:	4b6a      	ldr	r3, [pc, #424]	; (8000fa4 <HAL_RCC_OscConfig+0x4c4>)
 8000dfc:	6a1b      	ldr	r3, [r3, #32]
 8000dfe:	4a69      	ldr	r2, [pc, #420]	; (8000fa4 <HAL_RCC_OscConfig+0x4c4>)
 8000e00:	f023 0301 	bic.w	r3, r3, #1
 8000e04:	6213      	str	r3, [r2, #32]
 8000e06:	4b67      	ldr	r3, [pc, #412]	; (8000fa4 <HAL_RCC_OscConfig+0x4c4>)
 8000e08:	6a1b      	ldr	r3, [r3, #32]
 8000e0a:	4a66      	ldr	r2, [pc, #408]	; (8000fa4 <HAL_RCC_OscConfig+0x4c4>)
 8000e0c:	f023 0304 	bic.w	r3, r3, #4
 8000e10:	6213      	str	r3, [r2, #32]
 8000e12:	e01c      	b.n	8000e4e <HAL_RCC_OscConfig+0x36e>
 8000e14:	687b      	ldr	r3, [r7, #4]
 8000e16:	68db      	ldr	r3, [r3, #12]
 8000e18:	2b05      	cmp	r3, #5
 8000e1a:	d10c      	bne.n	8000e36 <HAL_RCC_OscConfig+0x356>
 8000e1c:	4b61      	ldr	r3, [pc, #388]	; (8000fa4 <HAL_RCC_OscConfig+0x4c4>)
 8000e1e:	6a1b      	ldr	r3, [r3, #32]
 8000e20:	4a60      	ldr	r2, [pc, #384]	; (8000fa4 <HAL_RCC_OscConfig+0x4c4>)
 8000e22:	f043 0304 	orr.w	r3, r3, #4
 8000e26:	6213      	str	r3, [r2, #32]
 8000e28:	4b5e      	ldr	r3, [pc, #376]	; (8000fa4 <HAL_RCC_OscConfig+0x4c4>)
 8000e2a:	6a1b      	ldr	r3, [r3, #32]
 8000e2c:	4a5d      	ldr	r2, [pc, #372]	; (8000fa4 <HAL_RCC_OscConfig+0x4c4>)
 8000e2e:	f043 0301 	orr.w	r3, r3, #1
 8000e32:	6213      	str	r3, [r2, #32]
 8000e34:	e00b      	b.n	8000e4e <HAL_RCC_OscConfig+0x36e>
 8000e36:	4b5b      	ldr	r3, [pc, #364]	; (8000fa4 <HAL_RCC_OscConfig+0x4c4>)
 8000e38:	6a1b      	ldr	r3, [r3, #32]
 8000e3a:	4a5a      	ldr	r2, [pc, #360]	; (8000fa4 <HAL_RCC_OscConfig+0x4c4>)
 8000e3c:	f023 0301 	bic.w	r3, r3, #1
 8000e40:	6213      	str	r3, [r2, #32]
 8000e42:	4b58      	ldr	r3, [pc, #352]	; (8000fa4 <HAL_RCC_OscConfig+0x4c4>)
 8000e44:	6a1b      	ldr	r3, [r3, #32]
 8000e46:	4a57      	ldr	r2, [pc, #348]	; (8000fa4 <HAL_RCC_OscConfig+0x4c4>)
 8000e48:	f023 0304 	bic.w	r3, r3, #4
 8000e4c:	6213      	str	r3, [r2, #32]
    /* Check the LSE State */
    if (RCC_OscInitStruct->LSEState != RCC_LSE_OFF)
 8000e4e:	687b      	ldr	r3, [r7, #4]
 8000e50:	68db      	ldr	r3, [r3, #12]
 8000e52:	2b00      	cmp	r3, #0
 8000e54:	d015      	beq.n	8000e82 <HAL_RCC_OscConfig+0x3a2>
    {
      /* Get Start Tick */
      tickstart = HAL_GetTick();
 8000e56:	f7ff fb59 	bl	800050c <HAL_GetTick>
 8000e5a:	6138      	str	r0, [r7, #16]

      /* Wait till LSE is ready */
      while (__HAL_RCC_GET_FLAG(RCC_FLAG_LSERDY) == RESET)
 8000e5c:	e00a      	b.n	8000e74 <HAL_RCC_OscConfig+0x394>
      {
        if ((HAL_GetTick() - tickstart) > RCC_LSE_TIMEOUT_VALUE)
 8000e5e:	f7ff fb55 	bl	800050c <HAL_GetTick>
 8000e62:	4602      	mov	r2, r0
 8000e64:	693b      	ldr	r3, [r7, #16]
 8000e66:	1ad3      	subs	r3, r2, r3
 8000e68:	f241 3288 	movw	r2, #5000	; 0x1388
 8000e6c:	4293      	cmp	r3, r2
 8000e6e:	d901      	bls.n	8000e74 <HAL_RCC_OscConfig+0x394>
        {
          return HAL_TIMEOUT;
 8000e70:	2303      	movs	r3, #3
 8000e72:	e0b1      	b.n	8000fd8 <HAL_RCC_OscConfig+0x4f8>
      while (__HAL_RCC_GET_FLAG(RCC_FLAG_LSERDY) == RESET)
 8000e74:	4b4b      	ldr	r3, [pc, #300]	; (8000fa4 <HAL_RCC_OscConfig+0x4c4>)
 8000e76:	6a1b      	ldr	r3, [r3, #32]
 8000e78:	f003 0302 	and.w	r3, r3, #2
 8000e7c:	2b00      	cmp	r3, #0
 8000e7e:	d0ee      	beq.n	8000e5e <HAL_RCC_OscConfig+0x37e>
 8000e80:	e014      	b.n	8000eac <HAL_RCC_OscConfig+0x3cc>
      }
    }
    else
    {
      /* Get Start Tick */
      tickstart = HAL_GetTick();
 8000e82:	f7ff fb43 	bl	800050c <HAL_GetTick>
 8000e86:	6138      	str	r0, [r7, #16]

      /* Wait till LSE is disabled */
      while (__HAL_RCC_GET_FLAG(RCC_FLAG_LSERDY) != RESET)
 8000e88:	e00a      	b.n	8000ea0 <HAL_RCC_OscConfig+0x3c0>
      {
        if ((HAL_GetTick() - tickstart) > RCC_LSE_TIMEOUT_VALUE)
 8000e8a:	f7ff fb3f 	bl	800050c <HAL_GetTick>
 8000e8e:	4602      	mov	r2, r0
 8000e90:	693b      	ldr	r3, [r7, #16]
 8000e92:	1ad3      	subs	r3, r2, r3
 8000e94:	f241 3288 	movw	r2, #5000	; 0x1388
 8000e98:	4293      	cmp	r3, r2
 8000e9a:	d901      	bls.n	8000ea0 <HAL_RCC_OscConfig+0x3c0>
        {
          return HAL_TIMEOUT;
 8000e9c:	2303      	movs	r3, #3
 8000e9e:	e09b      	b.n	8000fd8 <HAL_RCC_OscConfig+0x4f8>
      while (__HAL_RCC_GET_FLAG(RCC_FLAG_LSERDY) != RESET)
 8000ea0:	4b40      	ldr	r3, [pc, #256]	; (8000fa4 <HAL_RCC_OscConfig+0x4c4>)
 8000ea2:	6a1b      	ldr	r3, [r3, #32]
 8000ea4:	f003 0302 	and.w	r3, r3, #2
 8000ea8:	2b00      	cmp	r3, #0
 8000eaa:	d1ee      	bne.n	8000e8a <HAL_RCC_OscConfig+0x3aa>
        }
      }
    }

    /* Require to disable power clock if necessary */
    if (pwrclkchanged == SET)
 8000eac:	7dfb      	ldrb	r3, [r7, #23]
 8000eae:	2b01      	cmp	r3, #1
 8000eb0:	d105      	bne.n	8000ebe <HAL_RCC_OscConfig+0x3de>
    {
      __HAL_RCC_PWR_CLK_DISABLE();
 8000eb2:	4b3c      	ldr	r3, [pc, #240]	; (8000fa4 <HAL_RCC_OscConfig+0x4c4>)
 8000eb4:	69db      	ldr	r3, [r3, #28]
 8000eb6:	4a3b      	ldr	r2, [pc, #236]	; (8000fa4 <HAL_RCC_OscConfig+0x4c4>)
 8000eb8:	f023 5380 	bic.w	r3, r3, #268435456	; 0x10000000
 8000ebc:	61d3      	str	r3, [r2, #28]

#endif /* RCC_CR_PLL2ON */
  /*-------------------------------- PLL Configuration -----------------------*/
  /* Check the parameters */
  assert_param(IS_RCC_PLL(RCC_OscInitStruct->PLL.PLLState));
  if ((RCC_OscInitStruct->PLL.PLLState) != RCC_PLL_NONE)
 8000ebe:	687b      	ldr	r3, [r7, #4]
 8000ec0:	69db      	ldr	r3, [r3, #28]
 8000ec2:	2b00      	cmp	r3, #0
 8000ec4:	f000 8087 	beq.w	8000fd6 <HAL_RCC_OscConfig+0x4f6>
  {
    /* Check if the PLL is used as system clock or not */
    if (__HAL_RCC_GET_SYSCLK_SOURCE() != RCC_SYSCLKSOURCE_STATUS_PLLCLK)
 8000ec8:	4b36      	ldr	r3, [pc, #216]	; (8000fa4 <HAL_RCC_OscConfig+0x4c4>)
 8000eca:	685b      	ldr	r3, [r3, #4]
 8000ecc:	f003 030c 	and.w	r3, r3, #12
 8000ed0:	2b08      	cmp	r3, #8
 8000ed2:	d061      	beq.n	8000f98 <HAL_RCC_OscConfig+0x4b8>
    {
      if ((RCC_OscInitStruct->PLL.PLLState) == RCC_PLL_ON)
 8000ed4:	687b      	ldr	r3, [r7, #4]
 8000ed6:	69db      	ldr	r3, [r3, #28]
 8000ed8:	2b02      	cmp	r3, #2
 8000eda:	d146      	bne.n	8000f6a <HAL_RCC_OscConfig+0x48a>
        /* Check the parameters */
        assert_param(IS_RCC_PLLSOURCE(RCC_OscInitStruct->PLL.PLLSource));
        assert_param(IS_RCC_PLL_MUL(RCC_OscInitStruct->PLL.PLLMUL));

        /* Disable the main PLL. */
        __HAL_RCC_PLL_DISABLE();
 8000edc:	4b33      	ldr	r3, [pc, #204]	; (8000fac <HAL_RCC_OscConfig+0x4cc>)
 8000ede:	2200      	movs	r2, #0
 8000ee0:	601a      	str	r2, [r3, #0]

        /* Get Start Tick */
        tickstart = HAL_GetTick();
 8000ee2:	f7ff fb13 	bl	800050c <HAL_GetTick>
 8000ee6:	6138      	str	r0, [r7, #16]

        /* Wait till PLL is disabled */
        while (__HAL_RCC_GET_FLAG(RCC_FLAG_PLLRDY)  != RESET)
 8000ee8:	e008      	b.n	8000efc <HAL_RCC_OscConfig+0x41c>
        {
          if ((HAL_GetTick() - tickstart) > PLL_TIMEOUT_VALUE)
 8000eea:	f7ff fb0f 	bl	800050c <HAL_GetTick>
 8000eee:	4602      	mov	r2, r0
 8000ef0:	693b      	ldr	r3, [r7, #16]
 8000ef2:	1ad3      	subs	r3, r2, r3
 8000ef4:	2b02      	cmp	r3, #2
 8000ef6:	d901      	bls.n	8000efc <HAL_RCC_OscConfig+0x41c>
          {
            return HAL_TIMEOUT;
 8000ef8:	2303      	movs	r3, #3
 8000efa:	e06d      	b.n	8000fd8 <HAL_RCC_OscConfig+0x4f8>
        while (__HAL_RCC_GET_FLAG(RCC_FLAG_PLLRDY)  != RESET)
 8000efc:	4b29      	ldr	r3, [pc, #164]	; (8000fa4 <HAL_RCC_OscConfig+0x4c4>)
 8000efe:	681b      	ldr	r3, [r3, #0]
 8000f00:	f003 7300 	and.w	r3, r3, #33554432	; 0x2000000
 8000f04:	2b00      	cmp	r3, #0
 8000f06:	d1f0      	bne.n	8000eea <HAL_RCC_OscConfig+0x40a>
          }
        }

        /* Configure the HSE prediv factor --------------------------------*/
        /* It can be written only when the PLL is disabled. Not used in PLL source is different than HSE */
        if (RCC_OscInitStruct->PLL.PLLSource == RCC_PLLSOURCE_HSE)
 8000f08:	687b      	ldr	r3, [r7, #4]
 8000f0a:	6a1b      	ldr	r3, [r3, #32]
 8000f0c:	f5b3 3f80 	cmp.w	r3, #65536	; 0x10000
 8000f10:	d108      	bne.n	8000f24 <HAL_RCC_OscConfig+0x444>
          /* Set PREDIV1 source */
          SET_BIT(RCC->CFGR2, RCC_OscInitStruct->Prediv1Source);
#endif /* RCC_CFGR2_PREDIV1SRC */

          /* Set PREDIV1 Value */
          __HAL_RCC_HSE_PREDIV_CONFIG(RCC_OscInitStruct->HSEPredivValue);
 8000f12:	4b24      	ldr	r3, [pc, #144]	; (8000fa4 <HAL_RCC_OscConfig+0x4c4>)
 8000f14:	685b      	ldr	r3, [r3, #4]
 8000f16:	f423 3200 	bic.w	r2, r3, #131072	; 0x20000
 8000f1a:	687b      	ldr	r3, [r7, #4]
 8000f1c:	689b      	ldr	r3, [r3, #8]
 8000f1e:	4921      	ldr	r1, [pc, #132]	; (8000fa4 <HAL_RCC_OscConfig+0x4c4>)
 8000f20:	4313      	orrs	r3, r2
 8000f22:	604b      	str	r3, [r1, #4]
        }

        /* Configure the main PLL clock source and multiplication factors. */
        __HAL_RCC_PLL_CONFIG(RCC_OscInitStruct->PLL.PLLSource,
 8000f24:	4b1f      	ldr	r3, [pc, #124]	; (8000fa4 <HAL_RCC_OscConfig+0x4c4>)
 8000f26:	685b      	ldr	r3, [r3, #4]
 8000f28:	f423 1274 	bic.w	r2, r3, #3997696	; 0x3d0000
 8000f2c:	687b      	ldr	r3, [r7, #4]
 8000f2e:	6a19      	ldr	r1, [r3, #32]
 8000f30:	687b      	ldr	r3, [r7, #4]
 8000f32:	6a5b      	ldr	r3, [r3, #36]	; 0x24
 8000f34:	430b      	orrs	r3, r1
 8000f36:	491b      	ldr	r1, [pc, #108]	; (8000fa4 <HAL_RCC_OscConfig+0x4c4>)
 8000f38:	4313      	orrs	r3, r2
 8000f3a:	604b      	str	r3, [r1, #4]
                             RCC_OscInitStruct->PLL.PLLMUL);
        /* Enable the main PLL. */
        __HAL_RCC_PLL_ENABLE();
 8000f3c:	4b1b      	ldr	r3, [pc, #108]	; (8000fac <HAL_RCC_OscConfig+0x4cc>)
 8000f3e:	2201      	movs	r2, #1
 8000f40:	601a      	str	r2, [r3, #0]

        /* Get Start Tick */
        tickstart = HAL_GetTick();
 8000f42:	f7ff fae3 	bl	800050c <HAL_GetTick>
 8000f46:	6138      	str	r0, [r7, #16]

        /* Wait till PLL is ready */
        while (__HAL_RCC_GET_FLAG(RCC_FLAG_PLLRDY)  == RESET)
 8000f48:	e008      	b.n	8000f5c <HAL_RCC_OscConfig+0x47c>
        {
          if ((HAL_GetTick() - tickstart) > PLL_TIMEOUT_VALUE)
 8000f4a:	f7ff fadf 	bl	800050c <HAL_GetTick>
 8000f4e:	4602      	mov	r2, r0
 8000f50:	693b      	ldr	r3, [r7, #16]
 8000f52:	1ad3      	subs	r3, r2, r3
 8000f54:	2b02      	cmp	r3, #2
 8000f56:	d901      	bls.n	8000f5c <HAL_RCC_OscConfig+0x47c>
          {
            return HAL_TIMEOUT;
 8000f58:	2303      	movs	r3, #3
 8000f5a:	e03d      	b.n	8000fd8 <HAL_RCC_OscConfig+0x4f8>
        while (__HAL_RCC_GET_FLAG(RCC_FLAG_PLLRDY)  == RESET)
 8000f5c:	4b11      	ldr	r3, [pc, #68]	; (8000fa4 <HAL_RCC_OscConfig+0x4c4>)
 8000f5e:	681b      	ldr	r3, [r3, #0]
 8000f60:	f003 7300 	and.w	r3, r3, #33554432	; 0x2000000
 8000f64:	2b00      	cmp	r3, #0
 8000f66:	d0f0      	beq.n	8000f4a <HAL_RCC_OscConfig+0x46a>
 8000f68:	e035      	b.n	8000fd6 <HAL_RCC_OscConfig+0x4f6>
        }
      }
      else
      {
        /* Disable the main PLL. */
        __HAL_RCC_PLL_DISABLE();
 8000f6a:	4b10      	ldr	r3, [pc, #64]	; (8000fac <HAL_RCC_OscConfig+0x4cc>)
 8000f6c:	2200      	movs	r2, #0
 8000f6e:	601a      	str	r2, [r3, #0]

        /* Get Start Tick */
        tickstart = HAL_GetTick();
 8000f70:	f7ff facc 	bl	800050c <HAL_GetTick>
 8000f74:	6138      	str	r0, [r7, #16]

        /* Wait till PLL is disabled */
        while (__HAL_RCC_GET_FLAG(RCC_FLAG_PLLRDY)  != RESET)
 8000f76:	e008      	b.n	8000f8a <HAL_RCC_OscConfig+0x4aa>
        {
          if ((HAL_GetTick() - tickstart) > PLL_TIMEOUT_VALUE)
 8000f78:	f7ff fac8 	bl	800050c <HAL_GetTick>
 8000f7c:	4602      	mov	r2, r0
 8000f7e:	693b      	ldr	r3, [r7, #16]
 8000f80:	1ad3      	subs	r3, r2, r3
 8000f82:	2b02      	cmp	r3, #2
 8000f84:	d901      	bls.n	8000f8a <HAL_RCC_OscConfig+0x4aa>
          {
            return HAL_TIMEOUT;
 8000f86:	2303      	movs	r3, #3
 8000f88:	e026      	b.n	8000fd8 <HAL_RCC_OscConfig+0x4f8>
        while (__HAL_RCC_GET_FLAG(RCC_FLAG_PLLRDY)  != RESET)
 8000f8a:	4b06      	ldr	r3, [pc, #24]	; (8000fa4 <HAL_RCC_OscConfig+0x4c4>)
 8000f8c:	681b      	ldr	r3, [r3, #0]
 8000f8e:	f003 7300 	and.w	r3, r3, #33554432	; 0x2000000
 8000f92:	2b00      	cmp	r3, #0
 8000f94:	d1f0      	bne.n	8000f78 <HAL_RCC_OscConfig+0x498>
 8000f96:	e01e      	b.n	8000fd6 <HAL_RCC_OscConfig+0x4f6>
      }
    }
    else
    {
      /* Check if there is a request to disable the PLL used as System clock source */
      if ((RCC_OscInitStruct->PLL.PLLState) == RCC_PLL_OFF)
 8000f98:	687b      	ldr	r3, [r7, #4]
 8000f9a:	69db      	ldr	r3, [r3, #28]
 8000f9c:	2b01      	cmp	r3, #1
 8000f9e:	d107      	bne.n	8000fb0 <HAL_RCC_OscConfig+0x4d0>
      {
        return HAL_ERROR;
 8000fa0:	2301      	movs	r3, #1
 8000fa2:	e019      	b.n	8000fd8 <HAL_RCC_OscConfig+0x4f8>
 8000fa4:	40021000 	.word	0x40021000
 8000fa8:	40007000 	.word	0x40007000
 8000fac:	42420060 	.word	0x42420060
      }
      else
      {
        /* Do not return HAL_ERROR if request repeats the current configuration */
        pll_config = RCC->CFGR;
 8000fb0:	4b0b      	ldr	r3, [pc, #44]	; (8000fe0 <HAL_RCC_OscConfig+0x500>)
 8000fb2:	685b      	ldr	r3, [r3, #4]
 8000fb4:	60fb      	str	r3, [r7, #12]
        if ((READ_BIT(pll_config, RCC_CFGR_PLLSRC) != RCC_OscInitStruct->PLL.PLLSource) ||
 8000fb6:	68fb      	ldr	r3, [r7, #12]
 8000fb8:	f403 3280 	and.w	r2, r3, #65536	; 0x10000
 8000fbc:	687b      	ldr	r3, [r7, #4]
 8000fbe:	6a1b      	ldr	r3, [r3, #32]
 8000fc0:	429a      	cmp	r2, r3
 8000fc2:	d106      	bne.n	8000fd2 <HAL_RCC_OscConfig+0x4f2>
            (READ_BIT(pll_config, RCC_CFGR_PLLMULL) != RCC_OscInitStruct->PLL.PLLMUL))
 8000fc4:	68fb      	ldr	r3, [r7, #12]
 8000fc6:	f403 1270 	and.w	r2, r3, #3932160	; 0x3c0000
 8000fca:	687b      	ldr	r3, [r7, #4]
 8000fcc:	6a5b      	ldr	r3, [r3, #36]	; 0x24
        if ((READ_BIT(pll_config, RCC_CFGR_PLLSRC) != RCC_OscInitStruct->PLL.PLLSource) ||
 8000fce:	429a      	cmp	r2, r3
 8000fd0:	d001      	beq.n	8000fd6 <HAL_RCC_OscConfig+0x4f6>
        {
          return HAL_ERROR;
 8000fd2:	2301      	movs	r3, #1
 8000fd4:	e000      	b.n	8000fd8 <HAL_RCC_OscConfig+0x4f8>
        }
      }
    }
  }

  return HAL_OK;
 8000fd6:	2300      	movs	r3, #0
}
 8000fd8:	4618      	mov	r0, r3
 8000fda:	3718      	adds	r7, #24
 8000fdc:	46bd      	mov	sp, r7
 8000fde:	bd80      	pop	{r7, pc}
 8000fe0:	40021000 	.word	0x40021000

08000fe4 <HAL_RCC_ClockConfig>:
  *         You can use @ref HAL_RCC_GetClockConfig() function to know which clock is
  *         currently used as system clock source.
  * @retval HAL status
  */
HAL_StatusTypeDef HAL_RCC_ClockConfig(RCC_ClkInitTypeDef  *RCC_ClkInitStruct, uint32_t FLatency)
{
 8000fe4:	b580      	push	{r7, lr}
 8000fe6:	b084      	sub	sp, #16
 8000fe8:	af00      	add	r7, sp, #0
 8000fea:	6078      	str	r0, [r7, #4]
 8000fec:	6039      	str	r1, [r7, #0]
  uint32_t tickstart;

  /* Check Null pointer */
  if (RCC_ClkInitStruct == NULL)
 8000fee:	687b      	ldr	r3, [r7, #4]
 8000ff0:	2b00      	cmp	r3, #0
 8000ff2:	d101      	bne.n	8000ff8 <HAL_RCC_ClockConfig+0x14>
  {
    return HAL_ERROR;
 8000ff4:	2301      	movs	r3, #1
 8000ff6:	e0d0      	b.n	800119a <HAL_RCC_ClockConfig+0x1b6>
  must be correctly programmed according to the frequency of the CPU clock
    (HCLK) of the device. */

#if defined(FLASH_ACR_LATENCY)
  /* Increasing the number of wait states because of higher CPU frequency */
  if (FLatency > __HAL_FLASH_GET_LATENCY())
 8000ff8:	4b6a      	ldr	r3, [pc, #424]	; (80011a4 <HAL_RCC_ClockConfig+0x1c0>)
 8000ffa:	681b      	ldr	r3, [r3, #0]
 8000ffc:	f003 0307 	and.w	r3, r3, #7
 8001000:	683a      	ldr	r2, [r7, #0]
 8001002:	429a      	cmp	r2, r3
 8001004:	d910      	bls.n	8001028 <HAL_RCC_ClockConfig+0x44>
  {
    /* Program the new number of wait states to the LATENCY bits in the FLASH_ACR register */
    __HAL_FLASH_SET_LATENCY(FLatency);
 8001006:	4b67      	ldr	r3, [pc, #412]	; (80011a4 <HAL_RCC_ClockConfig+0x1c0>)
 8001008:	681b      	ldr	r3, [r3, #0]
 800100a:	f023 0207 	bic.w	r2, r3, #7
 800100e:	4965      	ldr	r1, [pc, #404]	; (80011a4 <HAL_RCC_ClockConfig+0x1c0>)
 8001010:	683b      	ldr	r3, [r7, #0]
 8001012:	4313      	orrs	r3, r2
 8001014:	600b      	str	r3, [r1, #0]

    /* Check that the new number of wait states is taken into account to access the Flash
    memory by reading the FLASH_ACR register */
    if (__HAL_FLASH_GET_LATENCY() != FLatency)
 8001016:	4b63      	ldr	r3, [pc, #396]	; (80011a4 <HAL_RCC_ClockConfig+0x1c0>)
 8001018:	681b      	ldr	r3, [r3, #0]
 800101a:	f003 0307 	and.w	r3, r3, #7
 800101e:	683a      	ldr	r2, [r7, #0]
 8001020:	429a      	cmp	r2, r3
 8001022:	d001      	beq.n	8001028 <HAL_RCC_ClockConfig+0x44>
  {
    return HAL_ERROR;
 8001024:	2301      	movs	r3, #1
 8001026:	e0b8      	b.n	800119a <HAL_RCC_ClockConfig+0x1b6>
  }
}

#endif /* FLASH_ACR_LATENCY */
/*-------------------------- HCLK Configuration --------------------------*/
if (((RCC_ClkInitStruct->ClockType) & RCC_CLOCKTYPE_HCLK) == RCC_CLOCKTYPE_HCLK)
 8001028:	687b      	ldr	r3, [r7, #4]
 800102a:	681b      	ldr	r3, [r3, #0]
 800102c:	f003 0302 	and.w	r3, r3, #2
 8001030:	2b00      	cmp	r3, #0
 8001032:	d020      	beq.n	8001076 <HAL_RCC_ClockConfig+0x92>
  {
    /* Set the highest APBx dividers in order to ensure that we do not go through
    a non-spec phase whatever we decrease or increase HCLK. */
    if (((RCC_ClkInitStruct->ClockType) & RCC_CLOCKTYPE_PCLK1) == RCC_CLOCKTYPE_PCLK1)
 8001034:	687b      	ldr	r3, [r7, #4]
 8001036:	681b      	ldr	r3, [r3, #0]
 8001038:	f003 0304 	and.w	r3, r3, #4
 800103c:	2b00      	cmp	r3, #0
 800103e:	d005      	beq.n	800104c <HAL_RCC_ClockConfig+0x68>
    {
      MODIFY_REG(RCC->CFGR, RCC_CFGR_PPRE1, RCC_HCLK_DIV16);
 8001040:	4b59      	ldr	r3, [pc, #356]	; (80011a8 <HAL_RCC_ClockConfig+0x1c4>)
 8001042:	685b      	ldr	r3, [r3, #4]
 8001044:	4a58      	ldr	r2, [pc, #352]	; (80011a8 <HAL_RCC_ClockConfig+0x1c4>)
 8001046:	f443 63e0 	orr.w	r3, r3, #1792	; 0x700
 800104a:	6053      	str	r3, [r2, #4]
    }

    if (((RCC_ClkInitStruct->ClockType) & RCC_CLOCKTYPE_PCLK2) == RCC_CLOCKTYPE_PCLK2)
 800104c:	687b      	ldr	r3, [r7, #4]
 800104e:	681b      	ldr	r3, [r3, #0]
 8001050:	f003 0308 	and.w	r3, r3, #8
 8001054:	2b00      	cmp	r3, #0
 8001056:	d005      	beq.n	8001064 <HAL_RCC_ClockConfig+0x80>
    {
      MODIFY_REG(RCC->CFGR, RCC_CFGR_PPRE2, (RCC_HCLK_DIV16 << 3));
 8001058:	4b53      	ldr	r3, [pc, #332]	; (80011a8 <HAL_RCC_ClockConfig+0x1c4>)
 800105a:	685b      	ldr	r3, [r3, #4]
 800105c:	4a52      	ldr	r2, [pc, #328]	; (80011a8 <HAL_RCC_ClockConfig+0x1c4>)
 800105e:	f443 5360 	orr.w	r3, r3, #14336	; 0x3800
 8001062:	6053      	str	r3, [r2, #4]
    }

    /* Set the new HCLK clock divider */
    assert_param(IS_RCC_HCLK(RCC_ClkInitStruct->AHBCLKDivider));
    MODIFY_REG(RCC->CFGR, RCC_CFGR_HPRE, RCC_ClkInitStruct->AHBCLKDivider);
 8001064:	4b50      	ldr	r3, [pc, #320]	; (80011a8 <HAL_RCC_ClockConfig+0x1c4>)
 8001066:	685b      	ldr	r3, [r3, #4]
 8001068:	f023 02f0 	bic.w	r2, r3, #240	; 0xf0
 800106c:	687b      	ldr	r3, [r7, #4]
 800106e:	689b      	ldr	r3, [r3, #8]
 8001070:	494d      	ldr	r1, [pc, #308]	; (80011a8 <HAL_RCC_ClockConfig+0x1c4>)
 8001072:	4313      	orrs	r3, r2
 8001074:	604b      	str	r3, [r1, #4]
  }

  /*------------------------- SYSCLK Configuration ---------------------------*/
  if (((RCC_ClkInitStruct->ClockType) & RCC_CLOCKTYPE_SYSCLK) == RCC_CLOCKTYPE_SYSCLK)
 8001076:	687b      	ldr	r3, [r7, #4]
 8001078:	681b      	ldr	r3, [r3, #0]
 800107a:	f003 0301 	and.w	r3, r3, #1
 800107e:	2b00      	cmp	r3, #0
 8001080:	d040      	beq.n	8001104 <HAL_RCC_ClockConfig+0x120>
  {
    assert_param(IS_RCC_SYSCLKSOURCE(RCC_ClkInitStruct->SYSCLKSource));

    /* HSE is selected as System Clock Source */
    if (RCC_ClkInitStruct->SYSCLKSource == RCC_SYSCLKSOURCE_HSE)
 8001082:	687b      	ldr	r3, [r7, #4]
 8001084:	685b      	ldr	r3, [r3, #4]
 8001086:	2b01      	cmp	r3, #1
 8001088:	d107      	bne.n	800109a <HAL_RCC_ClockConfig+0xb6>
    {
      /* Check the HSE ready flag */
      if (__HAL_RCC_GET_FLAG(RCC_FLAG_HSERDY) == RESET)
 800108a:	4b47      	ldr	r3, [pc, #284]	; (80011a8 <HAL_RCC_ClockConfig+0x1c4>)
 800108c:	681b      	ldr	r3, [r3, #0]
 800108e:	f403 3300 	and.w	r3, r3, #131072	; 0x20000
 8001092:	2b00      	cmp	r3, #0
 8001094:	d115      	bne.n	80010c2 <HAL_RCC_ClockConfig+0xde>
      {
        return HAL_ERROR;
 8001096:	2301      	movs	r3, #1
 8001098:	e07f      	b.n	800119a <HAL_RCC_ClockConfig+0x1b6>
      }
    }
    /* PLL is selected as System Clock Source */
    else if (RCC_ClkInitStruct->SYSCLKSource == RCC_SYSCLKSOURCE_PLLCLK)
 800109a:	687b      	ldr	r3, [r7, #4]
 800109c:	685b      	ldr	r3, [r3, #4]
 800109e:	2b02      	cmp	r3, #2
 80010a0:	d107      	bne.n	80010b2 <HAL_RCC_ClockConfig+0xce>
    {
      /* Check the PLL ready flag */
      if (__HAL_RCC_GET_FLAG(RCC_FLAG_PLLRDY) == RESET)
 80010a2:	4b41      	ldr	r3, [pc, #260]	; (80011a8 <HAL_RCC_ClockConfig+0x1c4>)
 80010a4:	681b      	ldr	r3, [r3, #0]
 80010a6:	f003 7300 	and.w	r3, r3, #33554432	; 0x2000000
 80010aa:	2b00      	cmp	r3, #0
 80010ac:	d109      	bne.n	80010c2 <HAL_RCC_ClockConfig+0xde>
      {
        return HAL_ERROR;
 80010ae:	2301      	movs	r3, #1
 80010b0:	e073      	b.n	800119a <HAL_RCC_ClockConfig+0x1b6>
    }
    /* HSI is selected as System Clock Source */
    else
    {
      /* Check the HSI ready flag */
      if (__HAL_RCC_GET_FLAG(RCC_FLAG_HSIRDY) == RESET)
 80010b2:	4b3d      	ldr	r3, [pc, #244]	; (80011a8 <HAL_RCC_ClockConfig+0x1c4>)
 80010b4:	681b      	ldr	r3, [r3, #0]
 80010b6:	f003 0302 	and.w	r3, r3, #2
 80010ba:	2b00      	cmp	r3, #0
 80010bc:	d101      	bne.n	80010c2 <HAL_RCC_ClockConfig+0xde>
      {
        return HAL_ERROR;
 80010be:	2301      	movs	r3, #1
 80010c0:	e06b      	b.n	800119a <HAL_RCC_ClockConfig+0x1b6>
      }
    }
    __HAL_RCC_SYSCLK_CONFIG(RCC_ClkInitStruct->SYSCLKSource);
 80010c2:	4b39      	ldr	r3, [pc, #228]	; (80011a8 <HAL_RCC_ClockConfig+0x1c4>)
 80010c4:	685b      	ldr	r3, [r3, #4]
 80010c6:	f023 0203 	bic.w	r2, r3, #3
 80010ca:	687b      	ldr	r3, [r7, #4]
 80010cc:	685b      	ldr	r3, [r3, #4]
 80010ce:	4936      	ldr	r1, [pc, #216]	; (80011a8 <HAL_RCC_ClockConfig+0x1c4>)
 80010d0:	4313      	orrs	r3, r2
 80010d2:	604b      	str	r3, [r1, #4]

    /* Get Start Tick */
    tickstart = HAL_GetTick();
 80010d4:	f7ff fa1a 	bl	800050c <HAL_GetTick>
 80010d8:	60f8      	str	r0, [r7, #12]

    while (__HAL_RCC_GET_SYSCLK_SOURCE() != (RCC_ClkInitStruct->SYSCLKSource << RCC_CFGR_SWS_Pos))
 80010da:	e00a      	b.n	80010f2 <HAL_RCC_ClockConfig+0x10e>
    {
      if ((HAL_GetTick() - tickstart) > CLOCKSWITCH_TIMEOUT_VALUE)
 80010dc:	f7ff fa16 	bl	800050c <HAL_GetTick>
 80010e0:	4602      	mov	r2, r0
 80010e2:	68fb      	ldr	r3, [r7, #12]
 80010e4:	1ad3      	subs	r3, r2, r3
 80010e6:	f241 3288 	movw	r2, #5000	; 0x1388
 80010ea:	4293      	cmp	r3, r2
 80010ec:	d901      	bls.n	80010f2 <HAL_RCC_ClockConfig+0x10e>
      {
        return HAL_TIMEOUT;
 80010ee:	2303      	movs	r3, #3
 80010f0:	e053      	b.n	800119a <HAL_RCC_ClockConfig+0x1b6>
    while (__HAL_RCC_GET_SYSCLK_SOURCE() != (RCC_ClkInitStruct->SYSCLKSource << RCC_CFGR_SWS_Pos))
 80010f2:	4b2d      	ldr	r3, [pc, #180]	; (80011a8 <HAL_RCC_ClockConfig+0x1c4>)
 80010f4:	685b      	ldr	r3, [r3, #4]
 80010f6:	f003 020c 	and.w	r2, r3, #12
 80010fa:	687b      	ldr	r3, [r7, #4]
 80010fc:	685b      	ldr	r3, [r3, #4]
 80010fe:	009b      	lsls	r3, r3, #2
 8001100:	429a      	cmp	r2, r3
 8001102:	d1eb      	bne.n	80010dc <HAL_RCC_ClockConfig+0xf8>
    }
  }

#if defined(FLASH_ACR_LATENCY)
  /* Decreasing the number of wait states because of lower CPU frequency */
  if (FLatency < __HAL_FLASH_GET_LATENCY())
 8001104:	4b27      	ldr	r3, [pc, #156]	; (80011a4 <HAL_RCC_ClockConfig+0x1c0>)
 8001106:	681b      	ldr	r3, [r3, #0]
 8001108:	f003 0307 	and.w	r3, r3, #7
 800110c:	683a      	ldr	r2, [r7, #0]
 800110e:	429a      	cmp	r2, r3
 8001110:	d210      	bcs.n	8001134 <HAL_RCC_ClockConfig+0x150>
  {
    /* Program the new number of wait states to the LATENCY bits in the FLASH_ACR register */
    __HAL_FLASH_SET_LATENCY(FLatency);
 8001112:	4b24      	ldr	r3, [pc, #144]	; (80011a4 <HAL_RCC_ClockConfig+0x1c0>)
 8001114:	681b      	ldr	r3, [r3, #0]
 8001116:	f023 0207 	bic.w	r2, r3, #7
 800111a:	4922      	ldr	r1, [pc, #136]	; (80011a4 <HAL_RCC_ClockConfig+0x1c0>)
 800111c:	683b      	ldr	r3, [r7, #0]
 800111e:	4313      	orrs	r3, r2
 8001120:	600b      	str	r3, [r1, #0]

    /* Check that the new number of wait states is taken into account to access the Flash
    memory by reading the FLASH_ACR register */
    if (__HAL_FLASH_GET_LATENCY() != FLatency)
 8001122:	4b20      	ldr	r3, [pc, #128]	; (80011a4 <HAL_RCC_ClockConfig+0x1c0>)
 8001124:	681b      	ldr	r3, [r3, #0]
 8001126:	f003 0307 	and.w	r3, r3, #7
 800112a:	683a      	ldr	r2, [r7, #0]
 800112c:	429a      	cmp	r2, r3
 800112e:	d001      	beq.n	8001134 <HAL_RCC_ClockConfig+0x150>
  {
    return HAL_ERROR;
 8001130:	2301      	movs	r3, #1
 8001132:	e032      	b.n	800119a <HAL_RCC_ClockConfig+0x1b6>
  }
}
#endif /* FLASH_ACR_LATENCY */

/*-------------------------- PCLK1 Configuration ---------------------------*/
if (((RCC_ClkInitStruct->ClockType) & RCC_CLOCKTYPE_PCLK1) == RCC_CLOCKTYPE_PCLK1)
 8001134:	687b      	ldr	r3, [r7, #4]
 8001136:	681b      	ldr	r3, [r3, #0]
 8001138:	f003 0304 	and.w	r3, r3, #4
 800113c:	2b00      	cmp	r3, #0
 800113e:	d008      	beq.n	8001152 <HAL_RCC_ClockConfig+0x16e>
  {
    assert_param(IS_RCC_PCLK(RCC_ClkInitStruct->APB1CLKDivider));
    MODIFY_REG(RCC->CFGR, RCC_CFGR_PPRE1, RCC_ClkInitStruct->APB1CLKDivider);
 8001140:	4b19      	ldr	r3, [pc, #100]	; (80011a8 <HAL_RCC_ClockConfig+0x1c4>)
 8001142:	685b      	ldr	r3, [r3, #4]
 8001144:	f423 62e0 	bic.w	r2, r3, #1792	; 0x700
 8001148:	687b      	ldr	r3, [r7, #4]
 800114a:	68db      	ldr	r3, [r3, #12]
 800114c:	4916      	ldr	r1, [pc, #88]	; (80011a8 <HAL_RCC_ClockConfig+0x1c4>)
 800114e:	4313      	orrs	r3, r2
 8001150:	604b      	str	r3, [r1, #4]
  }

  /*-------------------------- PCLK2 Configuration ---------------------------*/
  if (((RCC_ClkInitStruct->ClockType) & RCC_CLOCKTYPE_PCLK2) == RCC_CLOCKTYPE_PCLK2)
 8001152:	687b      	ldr	r3, [r7, #4]
 8001154:	681b      	ldr	r3, [r3, #0]
 8001156:	f003 0308 	and.w	r3, r3, #8
 800115a:	2b00      	cmp	r3, #0
 800115c:	d009      	beq.n	8001172 <HAL_RCC_ClockConfig+0x18e>
  {
    assert_param(IS_RCC_PCLK(RCC_ClkInitStruct->APB2CLKDivider));
    MODIFY_REG(RCC->CFGR, RCC_CFGR_PPRE2, ((RCC_ClkInitStruct->APB2CLKDivider) << 3));
 800115e:	4b12      	ldr	r3, [pc, #72]	; (80011a8 <HAL_RCC_ClockConfig+0x1c4>)
 8001160:	685b      	ldr	r3, [r3, #4]
 8001162:	f423 5260 	bic.w	r2, r3, #14336	; 0x3800
 8001166:	687b      	ldr	r3, [r7, #4]
 8001168:	691b      	ldr	r3, [r3, #16]
 800116a:	00db      	lsls	r3, r3, #3
 800116c:	490e      	ldr	r1, [pc, #56]	; (80011a8 <HAL_RCC_ClockConfig+0x1c4>)
 800116e:	4313      	orrs	r3, r2
 8001170:	604b      	str	r3, [r1, #4]
  }

  /* Update the SystemCoreClock global variable */
  SystemCoreClock = HAL_RCC_GetSysClockFreq() >> AHBPrescTable[(RCC->CFGR & RCC_CFGR_HPRE) >> RCC_CFGR_HPRE_Pos];
 8001172:	f000 f821 	bl	80011b8 <HAL_RCC_GetSysClockFreq>
 8001176:	4602      	mov	r2, r0
 8001178:	4b0b      	ldr	r3, [pc, #44]	; (80011a8 <HAL_RCC_ClockConfig+0x1c4>)
 800117a:	685b      	ldr	r3, [r3, #4]
 800117c:	091b      	lsrs	r3, r3, #4
 800117e:	f003 030f 	and.w	r3, r3, #15
 8001182:	490a      	ldr	r1, [pc, #40]	; (80011ac <HAL_RCC_ClockConfig+0x1c8>)
 8001184:	5ccb      	ldrb	r3, [r1, r3]
 8001186:	fa22 f303 	lsr.w	r3, r2, r3
 800118a:	4a09      	ldr	r2, [pc, #36]	; (80011b0 <HAL_RCC_ClockConfig+0x1cc>)
 800118c:	6013      	str	r3, [r2, #0]

  /* Configure the source of time base considering new system clocks settings*/
  HAL_InitTick(uwTickPrio);
 800118e:	4b09      	ldr	r3, [pc, #36]	; (80011b4 <HAL_RCC_ClockConfig+0x1d0>)
 8001190:	681b      	ldr	r3, [r3, #0]
 8001192:	4618      	mov	r0, r3
 8001194:	f7ff f978 	bl	8000488 <HAL_InitTick>

  return HAL_OK;
 8001198:	2300      	movs	r3, #0
}
 800119a:	4618      	mov	r0, r3
 800119c:	3710      	adds	r7, #16
 800119e:	46bd      	mov	sp, r7
 80011a0:	bd80      	pop	{r7, pc}
 80011a2:	bf00      	nop
 80011a4:	40022000 	.word	0x40022000
 80011a8:	40021000 	.word	0x40021000
 80011ac:	08001adc 	.word	0x08001adc
 80011b0:	20000000 	.word	0x20000000
 80011b4:	20000004 	.word	0x20000004

080011b8 <HAL_RCC_GetSysClockFreq>:
  *         right SYSCLK value. Otherwise, any configuration based on this function will be incorrect.
  *
  * @retval SYSCLK frequency
  */
uint32_t HAL_RCC_GetSysClockFreq(void)
{
 80011b8:	b480      	push	{r7}
 80011ba:	b087      	sub	sp, #28
 80011bc:	af00      	add	r7, sp, #0
#else
  static const uint8_t aPredivFactorTable[2U] = {1, 2};
#endif /*RCC_CFGR2_PREDIV1*/

#endif
  uint32_t tmpreg = 0U, prediv = 0U, pllclk = 0U, pllmul = 0U;
 80011be:	2300      	movs	r3, #0
 80011c0:	60fb      	str	r3, [r7, #12]
 80011c2:	2300      	movs	r3, #0
 80011c4:	60bb      	str	r3, [r7, #8]
 80011c6:	2300      	movs	r3, #0
 80011c8:	617b      	str	r3, [r7, #20]
 80011ca:	2300      	movs	r3, #0
 80011cc:	607b      	str	r3, [r7, #4]
  uint32_t sysclockfreq = 0U;
 80011ce:	2300      	movs	r3, #0
 80011d0:	613b      	str	r3, [r7, #16]
#if defined(RCC_CFGR2_PREDIV1SRC)
  uint32_t prediv2 = 0U, pll2mul = 0U;
#endif /*RCC_CFGR2_PREDIV1SRC*/

  tmpreg = RCC->CFGR;
 80011d2:	4b1e      	ldr	r3, [pc, #120]	; (800124c <HAL_RCC_GetSysClockFreq+0x94>)
 80011d4:	685b      	ldr	r3, [r3, #4]
 80011d6:	60fb      	str	r3, [r7, #12]

  /* Get SYSCLK source -------------------------------------------------------*/
  switch (tmpreg & RCC_CFGR_SWS)
 80011d8:	68fb      	ldr	r3, [r7, #12]
 80011da:	f003 030c 	and.w	r3, r3, #12
 80011de:	2b04      	cmp	r3, #4
 80011e0:	d002      	beq.n	80011e8 <HAL_RCC_GetSysClockFreq+0x30>
 80011e2:	2b08      	cmp	r3, #8
 80011e4:	d003      	beq.n	80011ee <HAL_RCC_GetSysClockFreq+0x36>
 80011e6:	e027      	b.n	8001238 <HAL_RCC_GetSysClockFreq+0x80>
  {
    case RCC_SYSCLKSOURCE_STATUS_HSE:  /* HSE used as system clock */
    {
      sysclockfreq = HSE_VALUE;
 80011e8:	4b19      	ldr	r3, [pc, #100]	; (8001250 <HAL_RCC_GetSysClockFreq+0x98>)
 80011ea:	613b      	str	r3, [r7, #16]
      break;
 80011ec:	e027      	b.n	800123e <HAL_RCC_GetSysClockFreq+0x86>
    }
    case RCC_SYSCLKSOURCE_STATUS_PLLCLK:  /* PLL used as system clock */
    {
      pllmul = aPLLMULFactorTable[(uint32_t)(tmpreg & RCC_CFGR_PLLMULL) >> RCC_CFGR_PLLMULL_Pos];
 80011ee:	68fb      	ldr	r3, [r7, #12]
 80011f0:	0c9b      	lsrs	r3, r3, #18
 80011f2:	f003 030f 	and.w	r3, r3, #15
 80011f6:	4a17      	ldr	r2, [pc, #92]	; (8001254 <HAL_RCC_GetSysClockFreq+0x9c>)
 80011f8:	5cd3      	ldrb	r3, [r2, r3]
 80011fa:	607b      	str	r3, [r7, #4]
      if ((tmpreg & RCC_CFGR_PLLSRC) != RCC_PLLSOURCE_HSI_DIV2)
 80011fc:	68fb      	ldr	r3, [r7, #12]
 80011fe:	f403 3380 	and.w	r3, r3, #65536	; 0x10000
 8001202:	2b00      	cmp	r3, #0
 8001204:	d010      	beq.n	8001228 <HAL_RCC_GetSysClockFreq+0x70>
      {
#if defined(RCC_CFGR2_PREDIV1)
        prediv = aPredivFactorTable[(uint32_t)(RCC->CFGR2 & RCC_CFGR2_PREDIV1) >> RCC_CFGR2_PREDIV1_Pos];
#else
        prediv = aPredivFactorTable[(uint32_t)(RCC->CFGR & RCC_CFGR_PLLXTPRE) >> RCC_CFGR_PLLXTPRE_Pos];
 8001206:	4b11      	ldr	r3, [pc, #68]	; (800124c <HAL_RCC_GetSysClockFreq+0x94>)
 8001208:	685b      	ldr	r3, [r3, #4]
 800120a:	0c5b      	lsrs	r3, r3, #17
 800120c:	f003 0301 	and.w	r3, r3, #1
 8001210:	4a11      	ldr	r2, [pc, #68]	; (8001258 <HAL_RCC_GetSysClockFreq+0xa0>)
 8001212:	5cd3      	ldrb	r3, [r2, r3]
 8001214:	60bb      	str	r3, [r7, #8]
        {
          pllclk = pllclk / 2;
        }
#else
        /* HSE used as PLL clock source : PLLCLK = HSE/PREDIV1 * PLLMUL */
        pllclk = (uint32_t)((HSE_VALUE  * pllmul) / prediv);
 8001216:	687b      	ldr	r3, [r7, #4]
 8001218:	4a0d      	ldr	r2, [pc, #52]	; (8001250 <HAL_RCC_GetSysClockFreq+0x98>)
 800121a:	fb03 f202 	mul.w	r2, r3, r2
 800121e:	68bb      	ldr	r3, [r7, #8]
 8001220:	fbb2 f3f3 	udiv	r3, r2, r3
 8001224:	617b      	str	r3, [r7, #20]
 8001226:	e004      	b.n	8001232 <HAL_RCC_GetSysClockFreq+0x7a>
#endif /*RCC_CFGR2_PREDIV1SRC*/
      }
      else
      {
        /* HSI used as PLL clock source : PLLCLK = HSI/2 * PLLMUL */
        pllclk = (uint32_t)((HSI_VALUE >> 1) * pllmul);
 8001228:	687b      	ldr	r3, [r7, #4]
 800122a:	4a0c      	ldr	r2, [pc, #48]	; (800125c <HAL_RCC_GetSysClockFreq+0xa4>)
 800122c:	fb02 f303 	mul.w	r3, r2, r3
 8001230:	617b      	str	r3, [r7, #20]
      }
      sysclockfreq = pllclk;
 8001232:	697b      	ldr	r3, [r7, #20]
 8001234:	613b      	str	r3, [r7, #16]
      break;
 8001236:	e002      	b.n	800123e <HAL_RCC_GetSysClockFreq+0x86>
    }
    case RCC_SYSCLKSOURCE_STATUS_HSI:  /* HSI used as system clock source */
    default: /* HSI used as system clock */
    {
      sysclockfreq = HSI_VALUE;
 8001238:	4b05      	ldr	r3, [pc, #20]	; (8001250 <HAL_RCC_GetSysClockFreq+0x98>)
 800123a:	613b      	str	r3, [r7, #16]
      break;
 800123c:	bf00      	nop
    }
  }
  return sysclockfreq;
 800123e:	693b      	ldr	r3, [r7, #16]
}
 8001240:	4618      	mov	r0, r3
 8001242:	371c      	adds	r7, #28
 8001244:	46bd      	mov	sp, r7
 8001246:	bc80      	pop	{r7}
 8001248:	4770      	bx	lr
 800124a:	bf00      	nop
 800124c:	40021000 	.word	0x40021000
 8001250:	007a1200 	.word	0x007a1200
 8001254:	08001aec 	.word	0x08001aec
 8001258:	08001afc 	.word	0x08001afc
 800125c:	003d0900 	.word	0x003d0900

08001260 <RCC_Delay>:
  * @brief  This function provides delay (in milliseconds) based on CPU cycles method.
  * @param  mdelay: specifies the delay time length, in milliseconds.
  * @retval None
  */
static void RCC_Delay(uint32_t mdelay)
{
 8001260:	b480      	push	{r7}
 8001262:	b085      	sub	sp, #20
 8001264:	af00      	add	r7, sp, #0
 8001266:	6078      	str	r0, [r7, #4]
  __IO uint32_t Delay = mdelay * (SystemCoreClock / 8U / 1000U);
 8001268:	4b0a      	ldr	r3, [pc, #40]	; (8001294 <RCC_Delay+0x34>)
 800126a:	681b      	ldr	r3, [r3, #0]
 800126c:	4a0a      	ldr	r2, [pc, #40]	; (8001298 <RCC_Delay+0x38>)
 800126e:	fba2 2303 	umull	r2, r3, r2, r3
 8001272:	0a5b      	lsrs	r3, r3, #9
 8001274:	687a      	ldr	r2, [r7, #4]
 8001276:	fb02 f303 	mul.w	r3, r2, r3
 800127a:	60fb      	str	r3, [r7, #12]
  do
  {
    __NOP();
 800127c:	bf00      	nop
  }
  while (Delay --);
 800127e:	68fb      	ldr	r3, [r7, #12]
 8001280:	1e5a      	subs	r2, r3, #1
 8001282:	60fa      	str	r2, [r7, #12]
 8001284:	2b00      	cmp	r3, #0
 8001286:	d1f9      	bne.n	800127c <RCC_Delay+0x1c>
}
 8001288:	bf00      	nop
 800128a:	bf00      	nop
 800128c:	3714      	adds	r7, #20
 800128e:	46bd      	mov	sp, r7
 8001290:	bc80      	pop	{r7}
 8001292:	4770      	bx	lr
 8001294:	20000000 	.word	0x20000000
 8001298:	10624dd3 	.word	0x10624dd3

0800129c <HAL_TIM_Base_Init>:
  *         Ex: call @ref HAL_TIM_Base_DeInit() before HAL_TIM_Base_Init()
  * @param  htim TIM Base handle
  * @retval HAL status
  */
HAL_StatusTypeDef HAL_TIM_Base_Init(TIM_HandleTypeDef *htim)
{
 800129c:	b580      	push	{r7, lr}
 800129e:	b082      	sub	sp, #8
 80012a0:	af00      	add	r7, sp, #0
 80012a2:	6078      	str	r0, [r7, #4]
  /* Check the TIM handle allocation */
  if (htim == NULL)
 80012a4:	687b      	ldr	r3, [r7, #4]
 80012a6:	2b00      	cmp	r3, #0
 80012a8:	d101      	bne.n	80012ae <HAL_TIM_Base_Init+0x12>
  {
    return HAL_ERROR;
 80012aa:	2301      	movs	r3, #1
 80012ac:	e041      	b.n	8001332 <HAL_TIM_Base_Init+0x96>
  assert_param(IS_TIM_COUNTER_MODE(htim->Init.CounterMode));
  assert_param(IS_TIM_CLOCKDIVISION_DIV(htim->Init.ClockDivision));
  assert_param(IS_TIM_PERIOD(htim->Init.Period));
  assert_param(IS_TIM_AUTORELOAD_PRELOAD(htim->Init.AutoReloadPreload));

  if (htim->State == HAL_TIM_STATE_RESET)
 80012ae:	687b      	ldr	r3, [r7, #4]
 80012b0:	f893 303d 	ldrb.w	r3, [r3, #61]	; 0x3d
 80012b4:	b2db      	uxtb	r3, r3
 80012b6:	2b00      	cmp	r3, #0
 80012b8:	d106      	bne.n	80012c8 <HAL_TIM_Base_Init+0x2c>
  {
    /* Allocate lock resource and initialize it */
    htim->Lock = HAL_UNLOCKED;
 80012ba:	687b      	ldr	r3, [r7, #4]
 80012bc:	2200      	movs	r2, #0
 80012be:	f883 203c 	strb.w	r2, [r3, #60]	; 0x3c
    }
    /* Init the low level hardware : GPIO, CLOCK, NVIC */
    htim->Base_MspInitCallback(htim);
#else
    /* Init the low level hardware : GPIO, CLOCK, NVIC */
    HAL_TIM_Base_MspInit(htim);
 80012c2:	6878      	ldr	r0, [r7, #4]
 80012c4:	f7ff f848 	bl	8000358 <HAL_TIM_Base_MspInit>
#endif /* USE_HAL_TIM_REGISTER_CALLBACKS */
  }

  /* Set the TIM state */
  htim->State = HAL_TIM_STATE_BUSY;
 80012c8:	687b      	ldr	r3, [r7, #4]
 80012ca:	2202      	movs	r2, #2
 80012cc:	f883 203d 	strb.w	r2, [r3, #61]	; 0x3d

  /* Set the Time Base configuration */
  TIM_Base_SetConfig(htim->Instance, &htim->Init);
 80012d0:	687b      	ldr	r3, [r7, #4]
 80012d2:	681a      	ldr	r2, [r3, #0]
 80012d4:	687b      	ldr	r3, [r7, #4]
 80012d6:	3304      	adds	r3, #4
 80012d8:	4619      	mov	r1, r3
 80012da:	4610      	mov	r0, r2
 80012dc:	f000 fa6e 	bl	80017bc <TIM_Base_SetConfig>

  /* Initialize the DMA burst operation state */
  htim->DMABurstState = HAL_DMA_BURST_STATE_READY;
 80012e0:	687b      	ldr	r3, [r7, #4]
 80012e2:	2201      	movs	r2, #1
 80012e4:	f883 2046 	strb.w	r2, [r3, #70]	; 0x46

  /* Initialize the TIM channels state */
  TIM_CHANNEL_STATE_SET_ALL(htim, HAL_TIM_CHANNEL_STATE_READY);
 80012e8:	687b      	ldr	r3, [r7, #4]
 80012ea:	2201      	movs	r2, #1
 80012ec:	f883 203e 	strb.w	r2, [r3, #62]	; 0x3e
 80012f0:	687b      	ldr	r3, [r7, #4]
 80012f2:	2201      	movs	r2, #1
 80012f4:	f883 203f 	strb.w	r2, [r3, #63]	; 0x3f
 80012f8:	687b      	ldr	r3, [r7, #4]
 80012fa:	2201      	movs	r2, #1
 80012fc:	f883 2040 	strb.w	r2, [r3, #64]	; 0x40
 8001300:	687b      	ldr	r3, [r7, #4]
 8001302:	2201      	movs	r2, #1
 8001304:	f883 2041 	strb.w	r2, [r3, #65]	; 0x41
  TIM_CHANNEL_N_STATE_SET_ALL(htim, HAL_TIM_CHANNEL_STATE_READY);
 8001308:	687b      	ldr	r3, [r7, #4]
 800130a:	2201      	movs	r2, #1
 800130c:	f883 2042 	strb.w	r2, [r3, #66]	; 0x42
 8001310:	687b      	ldr	r3, [r7, #4]
 8001312:	2201      	movs	r2, #1
 8001314:	f883 2043 	strb.w	r2, [r3, #67]	; 0x43
 8001318:	687b      	ldr	r3, [r7, #4]
 800131a:	2201      	movs	r2, #1
 800131c:	f883 2044 	strb.w	r2, [r3, #68]	; 0x44
 8001320:	687b      	ldr	r3, [r7, #4]
 8001322:	2201      	movs	r2, #1
 8001324:	f883 2045 	strb.w	r2, [r3, #69]	; 0x45

  /* Initialize the TIM state*/
  htim->State = HAL_TIM_STATE_READY;
 8001328:	687b      	ldr	r3, [r7, #4]
 800132a:	2201      	movs	r2, #1
 800132c:	f883 203d 	strb.w	r2, [r3, #61]	; 0x3d

  return HAL_OK;
 8001330:	2300      	movs	r3, #0
}
 8001332:	4618      	mov	r0, r3
 8001334:	3708      	adds	r7, #8
 8001336:	46bd      	mov	sp, r7
 8001338:	bd80      	pop	{r7, pc}
	...

0800133c <HAL_TIM_Base_Start_IT>:
  * @brief  Starts the TIM Base generation in interrupt mode.
  * @param  htim TIM Base handle
  * @retval HAL status
  */
HAL_StatusTypeDef HAL_TIM_Base_Start_IT(TIM_HandleTypeDef *htim)
{
 800133c:	b480      	push	{r7}
 800133e:	b085      	sub	sp, #20
 8001340:	af00      	add	r7, sp, #0
 8001342:	6078      	str	r0, [r7, #4]

  /* Check the parameters */
  assert_param(IS_TIM_INSTANCE(htim->Instance));

  /* Check the TIM state */
  if (htim->State != HAL_TIM_STATE_READY)
 8001344:	687b      	ldr	r3, [r7, #4]
 8001346:	f893 303d 	ldrb.w	r3, [r3, #61]	; 0x3d
 800134a:	b2db      	uxtb	r3, r3
 800134c:	2b01      	cmp	r3, #1
 800134e:	d001      	beq.n	8001354 <HAL_TIM_Base_Start_IT+0x18>
  {
    return HAL_ERROR;
 8001350:	2301      	movs	r3, #1
 8001352:	e035      	b.n	80013c0 <HAL_TIM_Base_Start_IT+0x84>
  }

  /* Set the TIM state */
  htim->State = HAL_TIM_STATE_BUSY;
 8001354:	687b      	ldr	r3, [r7, #4]
 8001356:	2202      	movs	r2, #2
 8001358:	f883 203d 	strb.w	r2, [r3, #61]	; 0x3d

  /* Enable the TIM Update interrupt */
  __HAL_TIM_ENABLE_IT(htim, TIM_IT_UPDATE);
 800135c:	687b      	ldr	r3, [r7, #4]
 800135e:	681b      	ldr	r3, [r3, #0]
 8001360:	68da      	ldr	r2, [r3, #12]
 8001362:	687b      	ldr	r3, [r7, #4]
 8001364:	681b      	ldr	r3, [r3, #0]
 8001366:	f042 0201 	orr.w	r2, r2, #1
 800136a:	60da      	str	r2, [r3, #12]

  /* Enable the Peripheral, except in trigger mode where enable is automatically done with trigger */
  if (IS_TIM_SLAVE_INSTANCE(htim->Instance))
 800136c:	687b      	ldr	r3, [r7, #4]
 800136e:	681b      	ldr	r3, [r3, #0]
 8001370:	4a16      	ldr	r2, [pc, #88]	; (80013cc <HAL_TIM_Base_Start_IT+0x90>)
 8001372:	4293      	cmp	r3, r2
 8001374:	d009      	beq.n	800138a <HAL_TIM_Base_Start_IT+0x4e>
 8001376:	687b      	ldr	r3, [r7, #4]
 8001378:	681b      	ldr	r3, [r3, #0]
 800137a:	f1b3 4f80 	cmp.w	r3, #1073741824	; 0x40000000
 800137e:	d004      	beq.n	800138a <HAL_TIM_Base_Start_IT+0x4e>
 8001380:	687b      	ldr	r3, [r7, #4]
 8001382:	681b      	ldr	r3, [r3, #0]
 8001384:	4a12      	ldr	r2, [pc, #72]	; (80013d0 <HAL_TIM_Base_Start_IT+0x94>)
 8001386:	4293      	cmp	r3, r2
 8001388:	d111      	bne.n	80013ae <HAL_TIM_Base_Start_IT+0x72>
  {
    tmpsmcr = htim->Instance->SMCR & TIM_SMCR_SMS;
 800138a:	687b      	ldr	r3, [r7, #4]
 800138c:	681b      	ldr	r3, [r3, #0]
 800138e:	689b      	ldr	r3, [r3, #8]
 8001390:	f003 0307 	and.w	r3, r3, #7
 8001394:	60fb      	str	r3, [r7, #12]
    if (!IS_TIM_SLAVEMODE_TRIGGER_ENABLED(tmpsmcr))
 8001396:	68fb      	ldr	r3, [r7, #12]
 8001398:	2b06      	cmp	r3, #6
 800139a:	d010      	beq.n	80013be <HAL_TIM_Base_Start_IT+0x82>
    {
      __HAL_TIM_ENABLE(htim);
 800139c:	687b      	ldr	r3, [r7, #4]
 800139e:	681b      	ldr	r3, [r3, #0]
 80013a0:	681a      	ldr	r2, [r3, #0]
 80013a2:	687b      	ldr	r3, [r7, #4]
 80013a4:	681b      	ldr	r3, [r3, #0]
 80013a6:	f042 0201 	orr.w	r2, r2, #1
 80013aa:	601a      	str	r2, [r3, #0]
    if (!IS_TIM_SLAVEMODE_TRIGGER_ENABLED(tmpsmcr))
 80013ac:	e007      	b.n	80013be <HAL_TIM_Base_Start_IT+0x82>
    }
  }
  else
  {
    __HAL_TIM_ENABLE(htim);
 80013ae:	687b      	ldr	r3, [r7, #4]
 80013b0:	681b      	ldr	r3, [r3, #0]
 80013b2:	681a      	ldr	r2, [r3, #0]
 80013b4:	687b      	ldr	r3, [r7, #4]
 80013b6:	681b      	ldr	r3, [r3, #0]
 80013b8:	f042 0201 	orr.w	r2, r2, #1
 80013bc:	601a      	str	r2, [r3, #0]
  }

  /* Return function status */
  return HAL_OK;
 80013be:	2300      	movs	r3, #0
}
 80013c0:	4618      	mov	r0, r3
 80013c2:	3714      	adds	r7, #20
 80013c4:	46bd      	mov	sp, r7
 80013c6:	bc80      	pop	{r7}
 80013c8:	4770      	bx	lr
 80013ca:	bf00      	nop
 80013cc:	40012c00 	.word	0x40012c00
 80013d0:	40000400 	.word	0x40000400

080013d4 <HAL_TIM_IRQHandler>:
  * @brief  This function handles TIM interrupts requests.
  * @param  htim TIM  handle
  * @retval None
  */
void HAL_TIM_IRQHandler(TIM_HandleTypeDef *htim)
{
 80013d4:	b580      	push	{r7, lr}
 80013d6:	b082      	sub	sp, #8
 80013d8:	af00      	add	r7, sp, #0
 80013da:	6078      	str	r0, [r7, #4]
  /* Capture compare 1 event */
  if (__HAL_TIM_GET_FLAG(htim, TIM_FLAG_CC1) != RESET)
 80013dc:	687b      	ldr	r3, [r7, #4]
 80013de:	681b      	ldr	r3, [r3, #0]
 80013e0:	691b      	ldr	r3, [r3, #16]
 80013e2:	f003 0302 	and.w	r3, r3, #2
 80013e6:	2b02      	cmp	r3, #2
 80013e8:	d122      	bne.n	8001430 <HAL_TIM_IRQHandler+0x5c>
  {
    if (__HAL_TIM_GET_IT_SOURCE(htim, TIM_IT_CC1) != RESET)
 80013ea:	687b      	ldr	r3, [r7, #4]
 80013ec:	681b      	ldr	r3, [r3, #0]
 80013ee:	68db      	ldr	r3, [r3, #12]
 80013f0:	f003 0302 	and.w	r3, r3, #2
 80013f4:	2b02      	cmp	r3, #2
 80013f6:	d11b      	bne.n	8001430 <HAL_TIM_IRQHandler+0x5c>
    {
      {
        __HAL_TIM_CLEAR_IT(htim, TIM_IT_CC1);
 80013f8:	687b      	ldr	r3, [r7, #4]
 80013fa:	681b      	ldr	r3, [r3, #0]
 80013fc:	f06f 0202 	mvn.w	r2, #2
 8001400:	611a      	str	r2, [r3, #16]
        htim->Channel = HAL_TIM_ACTIVE_CHANNEL_1;
 8001402:	687b      	ldr	r3, [r7, #4]
 8001404:	2201      	movs	r2, #1
 8001406:	771a      	strb	r2, [r3, #28]

        /* Input capture event */
        if ((htim->Instance->CCMR1 & TIM_CCMR1_CC1S) != 0x00U)
 8001408:	687b      	ldr	r3, [r7, #4]
 800140a:	681b      	ldr	r3, [r3, #0]
 800140c:	699b      	ldr	r3, [r3, #24]
 800140e:	f003 0303 	and.w	r3, r3, #3
 8001412:	2b00      	cmp	r3, #0
 8001414:	d003      	beq.n	800141e <HAL_TIM_IRQHandler+0x4a>
        {
#if (USE_HAL_TIM_REGISTER_CALLBACKS == 1)
          htim->IC_CaptureCallback(htim);
#else
          HAL_TIM_IC_CaptureCallback(htim);
 8001416:	6878      	ldr	r0, [r7, #4]
 8001418:	f000 f9b4 	bl	8001784 <HAL_TIM_IC_CaptureCallback>
 800141c:	e005      	b.n	800142a <HAL_TIM_IRQHandler+0x56>
        {
#if (USE_HAL_TIM_REGISTER_CALLBACKS == 1)
          htim->OC_DelayElapsedCallback(htim);
          htim->PWM_PulseFinishedCallback(htim);
#else
          HAL_TIM_OC_DelayElapsedCallback(htim);
 800141e:	6878      	ldr	r0, [r7, #4]
 8001420:	f000 f9a7 	bl	8001772 <HAL_TIM_OC_DelayElapsedCallback>
          HAL_TIM_PWM_PulseFinishedCallback(htim);
 8001424:	6878      	ldr	r0, [r7, #4]
 8001426:	f000 f9b6 	bl	8001796 <HAL_TIM_PWM_PulseFinishedCallback>
#endif /* USE_HAL_TIM_REGISTER_CALLBACKS */
        }
        htim->Channel = HAL_TIM_ACTIVE_CHANNEL_CLEARED;
 800142a:	687b      	ldr	r3, [r7, #4]
 800142c:	2200      	movs	r2, #0
 800142e:	771a      	strb	r2, [r3, #28]
      }
    }
  }
  /* Capture compare 2 event */
  if (__HAL_TIM_GET_FLAG(htim, TIM_FLAG_CC2) != RESET)
 8001430:	687b      	ldr	r3, [r7, #4]
 8001432:	681b      	ldr	r3, [r3, #0]
 8001434:	691b      	ldr	r3, [r3, #16]
 8001436:	f003 0304 	and.w	r3, r3, #4
 800143a:	2b04      	cmp	r3, #4
 800143c:	d122      	bne.n	8001484 <HAL_TIM_IRQHandler+0xb0>
  {
    if (__HAL_TIM_GET_IT_SOURCE(htim, TIM_IT_CC2) != RESET)
 800143e:	687b      	ldr	r3, [r7, #4]
 8001440:	681b      	ldr	r3, [r3, #0]
 8001442:	68db      	ldr	r3, [r3, #12]
 8001444:	f003 0304 	and.w	r3, r3, #4
 8001448:	2b04      	cmp	r3, #4
 800144a:	d11b      	bne.n	8001484 <HAL_TIM_IRQHandler+0xb0>
    {
      __HAL_TIM_CLEAR_IT(htim, TIM_IT_CC2);
 800144c:	687b      	ldr	r3, [r7, #4]
 800144e:	681b      	ldr	r3, [r3, #0]
 8001450:	f06f 0204 	mvn.w	r2, #4
 8001454:	611a      	str	r2, [r3, #16]
      htim->Channel = HAL_TIM_ACTIVE_CHANNEL_2;
 8001456:	687b      	ldr	r3, [r7, #4]
 8001458:	2202      	movs	r2, #2
 800145a:	771a      	strb	r2, [r3, #28]
      /* Input capture event */
      if ((htim->Instance->CCMR1 & TIM_CCMR1_CC2S) != 0x00U)
 800145c:	687b      	ldr	r3, [r7, #4]
 800145e:	681b      	ldr	r3, [r3, #0]
 8001460:	699b      	ldr	r3, [r3, #24]
 8001462:	f403 7340 	and.w	r3, r3, #768	; 0x300
 8001466:	2b00      	cmp	r3, #0
 8001468:	d003      	beq.n	8001472 <HAL_TIM_IRQHandler+0x9e>
      {
#if (USE_HAL_TIM_REGISTER_CALLBACKS == 1)
        htim->IC_CaptureCallback(htim);
#else
        HAL_TIM_IC_CaptureCallback(htim);
 800146a:	6878      	ldr	r0, [r7, #4]
 800146c:	f000 f98a 	bl	8001784 <HAL_TIM_IC_CaptureCallback>
 8001470:	e005      	b.n	800147e <HAL_TIM_IRQHandler+0xaa>
      {
#if (USE_HAL_TIM_REGISTER_CALLBACKS == 1)
        htim->OC_DelayElapsedCallback(htim);
        htim->PWM_PulseFinishedCallback(htim);
#else
        HAL_TIM_OC_DelayElapsedCallback(htim);
 8001472:	6878      	ldr	r0, [r7, #4]
 8001474:	f000 f97d 	bl	8001772 <HAL_TIM_OC_DelayElapsedCallback>
        HAL_TIM_PWM_PulseFinishedCallback(htim);
 8001478:	6878      	ldr	r0, [r7, #4]
 800147a:	f000 f98c 	bl	8001796 <HAL_TIM_PWM_PulseFinishedCallback>
#endif /* USE_HAL_TIM_REGISTER_CALLBACKS */
      }
      htim->Channel = HAL_TIM_ACTIVE_CHANNEL_CLEARED;
 800147e:	687b      	ldr	r3, [r7, #4]
 8001480:	2200      	movs	r2, #0
 8001482:	771a      	strb	r2, [r3, #28]
    }
  }
  /* Capture compare 3 event */
  if (__HAL_TIM_GET_FLAG(htim, TIM_FLAG_CC3) != RESET)
 8001484:	687b      	ldr	r3, [r7, #4]
 8001486:	681b      	ldr	r3, [r3, #0]
 8001488:	691b      	ldr	r3, [r3, #16]
 800148a:	f003 0308 	and.w	r3, r3, #8
 800148e:	2b08      	cmp	r3, #8
 8001490:	d122      	bne.n	80014d8 <HAL_TIM_IRQHandler+0x104>
  {
    if (__HAL_TIM_GET_IT_SOURCE(htim, TIM_IT_CC3) != RESET)
 8001492:	687b      	ldr	r3, [r7, #4]
 8001494:	681b      	ldr	r3, [r3, #0]
 8001496:	68db      	ldr	r3, [r3, #12]
 8001498:	f003 0308 	and.w	r3, r3, #8
 800149c:	2b08      	cmp	r3, #8
 800149e:	d11b      	bne.n	80014d8 <HAL_TIM_IRQHandler+0x104>
    {
      __HAL_TIM_CLEAR_IT(htim, TIM_IT_CC3);
 80014a0:	687b      	ldr	r3, [r7, #4]
 80014a2:	681b      	ldr	r3, [r3, #0]
 80014a4:	f06f 0208 	mvn.w	r2, #8
 80014a8:	611a      	str	r2, [r3, #16]
      htim->Channel = HAL_TIM_ACTIVE_CHANNEL_3;
 80014aa:	687b      	ldr	r3, [r7, #4]
 80014ac:	2204      	movs	r2, #4
 80014ae:	771a      	strb	r2, [r3, #28]
      /* Input capture event */
      if ((htim->Instance->CCMR2 & TIM_CCMR2_CC3S) != 0x00U)
 80014b0:	687b      	ldr	r3, [r7, #4]
 80014b2:	681b      	ldr	r3, [r3, #0]
 80014b4:	69db      	ldr	r3, [r3, #28]
 80014b6:	f003 0303 	and.w	r3, r3, #3
 80014ba:	2b00      	cmp	r3, #0
 80014bc:	d003      	beq.n	80014c6 <HAL_TIM_IRQHandler+0xf2>
      {
#if (USE_HAL_TIM_REGISTER_CALLBACKS == 1)
        htim->IC_CaptureCallback(htim);
#else
        HAL_TIM_IC_CaptureCallback(htim);
 80014be:	6878      	ldr	r0, [r7, #4]
 80014c0:	f000 f960 	bl	8001784 <HAL_TIM_IC_CaptureCallback>
 80014c4:	e005      	b.n	80014d2 <HAL_TIM_IRQHandler+0xfe>
      {
#if (USE_HAL_TIM_REGISTER_CALLBACKS == 1)
        htim->OC_DelayElapsedCallback(htim);
        htim->PWM_PulseFinishedCallback(htim);
#else
        HAL_TIM_OC_DelayElapsedCallback(htim);
 80014c6:	6878      	ldr	r0, [r7, #4]
 80014c8:	f000 f953 	bl	8001772 <HAL_TIM_OC_DelayElapsedCallback>
        HAL_TIM_PWM_PulseFinishedCallback(htim);
 80014cc:	6878      	ldr	r0, [r7, #4]
 80014ce:	f000 f962 	bl	8001796 <HAL_TIM_PWM_PulseFinishedCallback>
#endif /* USE_HAL_TIM_REGISTER_CALLBACKS */
      }
      htim->Channel = HAL_TIM_ACTIVE_CHANNEL_CLEARED;
 80014d2:	687b      	ldr	r3, [r7, #4]
 80014d4:	2200      	movs	r2, #0
 80014d6:	771a      	strb	r2, [r3, #28]
    }
  }
  /* Capture compare 4 event */
  if (__HAL_TIM_GET_FLAG(htim, TIM_FLAG_CC4) != RESET)
 80014d8:	687b      	ldr	r3, [r7, #4]
 80014da:	681b      	ldr	r3, [r3, #0]
 80014dc:	691b      	ldr	r3, [r3, #16]
 80014de:	f003 0310 	and.w	r3, r3, #16
 80014e2:	2b10      	cmp	r3, #16
 80014e4:	d122      	bne.n	800152c <HAL_TIM_IRQHandler+0x158>
  {
    if (__HAL_TIM_GET_IT_SOURCE(htim, TIM_IT_CC4) != RESET)
 80014e6:	687b      	ldr	r3, [r7, #4]
 80014e8:	681b      	ldr	r3, [r3, #0]
 80014ea:	68db      	ldr	r3, [r3, #12]
 80014ec:	f003 0310 	and.w	r3, r3, #16
 80014f0:	2b10      	cmp	r3, #16
 80014f2:	d11b      	bne.n	800152c <HAL_TIM_IRQHandler+0x158>
    {
      __HAL_TIM_CLEAR_IT(htim, TIM_IT_CC4);
 80014f4:	687b      	ldr	r3, [r7, #4]
 80014f6:	681b      	ldr	r3, [r3, #0]
 80014f8:	f06f 0210 	mvn.w	r2, #16
 80014fc:	611a      	str	r2, [r3, #16]
      htim->Channel = HAL_TIM_ACTIVE_CHANNEL_4;
 80014fe:	687b      	ldr	r3, [r7, #4]
 8001500:	2208      	movs	r2, #8
 8001502:	771a      	strb	r2, [r3, #28]
      /* Input capture event */
      if ((htim->Instance->CCMR2 & TIM_CCMR2_CC4S) != 0x00U)
 8001504:	687b      	ldr	r3, [r7, #4]
 8001506:	681b      	ldr	r3, [r3, #0]
 8001508:	69db      	ldr	r3, [r3, #28]
 800150a:	f403 7340 	and.w	r3, r3, #768	; 0x300
 800150e:	2b00      	cmp	r3, #0
 8001510:	d003      	beq.n	800151a <HAL_TIM_IRQHandler+0x146>
      {
#if (USE_HAL_TIM_REGISTER_CALLBACKS == 1)
        htim->IC_CaptureCallback(htim);
#else
        HAL_TIM_IC_CaptureCallback(htim);
 8001512:	6878      	ldr	r0, [r7, #4]
 8001514:	f000 f936 	bl	8001784 <HAL_TIM_IC_CaptureCallback>
 8001518:	e005      	b.n	8001526 <HAL_TIM_IRQHandler+0x152>
      {
#if (USE_HAL_TIM_REGISTER_CALLBACKS == 1)
        htim->OC_DelayElapsedCallback(htim);
        htim->PWM_PulseFinishedCallback(htim);
#else
        HAL_TIM_OC_DelayElapsedCallback(htim);
 800151a:	6878      	ldr	r0, [r7, #4]
 800151c:	f000 f929 	bl	8001772 <HAL_TIM_OC_DelayElapsedCallback>
        HAL_TIM_PWM_PulseFinishedCallback(htim);
 8001520:	6878      	ldr	r0, [r7, #4]
 8001522:	f000 f938 	bl	8001796 <HAL_TIM_PWM_PulseFinishedCallback>
#endif /* USE_HAL_TIM_REGISTER_CALLBACKS */
      }
      htim->Channel = HAL_TIM_ACTIVE_CHANNEL_CLEARED;
 8001526:	687b      	ldr	r3, [r7, #4]
 8001528:	2200      	movs	r2, #0
 800152a:	771a      	strb	r2, [r3, #28]
    }
  }
  /* TIM Update event */
  if (__HAL_TIM_GET_FLAG(htim, TIM_FLAG_UPDATE) != RESET)
 800152c:	687b      	ldr	r3, [r7, #4]
 800152e:	681b      	ldr	r3, [r3, #0]
 8001530:	691b      	ldr	r3, [r3, #16]
 8001532:	f003 0301 	and.w	r3, r3, #1
 8001536:	2b01      	cmp	r3, #1
 8001538:	d10e      	bne.n	8001558 <HAL_TIM_IRQHandler+0x184>
  {
    if (__HAL_TIM_GET_IT_SOURCE(htim, TIM_IT_UPDATE) != RESET)
 800153a:	687b      	ldr	r3, [r7, #4]
 800153c:	681b      	ldr	r3, [r3, #0]
 800153e:	68db      	ldr	r3, [r3, #12]
 8001540:	f003 0301 	and.w	r3, r3, #1
 8001544:	2b01      	cmp	r3, #1
 8001546:	d107      	bne.n	8001558 <HAL_TIM_IRQHandler+0x184>
    {
      __HAL_TIM_CLEAR_IT(htim, TIM_IT_UPDATE);
 8001548:	687b      	ldr	r3, [r7, #4]
 800154a:	681b      	ldr	r3, [r3, #0]
 800154c:	f06f 0201 	mvn.w	r2, #1
 8001550:	611a      	str	r2, [r3, #16]
#if (USE_HAL_TIM_REGISTER_CALLBACKS == 1)
      htim->PeriodElapsedCallback(htim);
#else
      HAL_TIM_PeriodElapsedCallback(htim);
 8001552:	6878      	ldr	r0, [r7, #4]
 8001554:	f7fe fed0 	bl	80002f8 <HAL_TIM_PeriodElapsedCallback>
#endif /* USE_HAL_TIM_REGISTER_CALLBACKS */
    }
  }
  /* TIM Break input event */
  if (__HAL_TIM_GET_FLAG(htim, TIM_FLAG_BREAK) != RESET)
 8001558:	687b      	ldr	r3, [r7, #4]
 800155a:	681b      	ldr	r3, [r3, #0]
 800155c:	691b      	ldr	r3, [r3, #16]
 800155e:	f003 0380 	and.w	r3, r3, #128	; 0x80
 8001562:	2b80      	cmp	r3, #128	; 0x80
 8001564:	d10e      	bne.n	8001584 <HAL_TIM_IRQHandler+0x1b0>
  {
    if (__HAL_TIM_GET_IT_SOURCE(htim, TIM_IT_BREAK) != RESET)
 8001566:	687b      	ldr	r3, [r7, #4]
 8001568:	681b      	ldr	r3, [r3, #0]
 800156a:	68db      	ldr	r3, [r3, #12]
 800156c:	f003 0380 	and.w	r3, r3, #128	; 0x80
 8001570:	2b80      	cmp	r3, #128	; 0x80
 8001572:	d107      	bne.n	8001584 <HAL_TIM_IRQHandler+0x1b0>
    {
      __HAL_TIM_CLEAR_IT(htim, TIM_IT_BREAK);
 8001574:	687b      	ldr	r3, [r7, #4]
 8001576:	681b      	ldr	r3, [r3, #0]
 8001578:	f06f 0280 	mvn.w	r2, #128	; 0x80
 800157c:	611a      	str	r2, [r3, #16]
#if (USE_HAL_TIM_REGISTER_CALLBACKS == 1)
      htim->BreakCallback(htim);
#else
      HAL_TIMEx_BreakCallback(htim);
 800157e:	6878      	ldr	r0, [r7, #4]
 8001580:	f000 fa6b 	bl	8001a5a <HAL_TIMEx_BreakCallback>
#endif /* USE_HAL_TIM_REGISTER_CALLBACKS */
    }
  }
  /* TIM Trigger detection event */
  if (__HAL_TIM_GET_FLAG(htim, TIM_FLAG_TRIGGER) != RESET)
 8001584:	687b      	ldr	r3, [r7, #4]
 8001586:	681b      	ldr	r3, [r3, #0]
 8001588:	691b      	ldr	r3, [r3, #16]
 800158a:	f003 0340 	and.w	r3, r3, #64	; 0x40
 800158e:	2b40      	cmp	r3, #64	; 0x40
 8001590:	d10e      	bne.n	80015b0 <HAL_TIM_IRQHandler+0x1dc>
  {
    if (__HAL_TIM_GET_IT_SOURCE(htim, TIM_IT_TRIGGER) != RESET)
 8001592:	687b      	ldr	r3, [r7, #4]
 8001594:	681b      	ldr	r3, [r3, #0]
 8001596:	68db      	ldr	r3, [r3, #12]
 8001598:	f003 0340 	and.w	r3, r3, #64	; 0x40
 800159c:	2b40      	cmp	r3, #64	; 0x40
 800159e:	d107      	bne.n	80015b0 <HAL_TIM_IRQHandler+0x1dc>
    {
      __HAL_TIM_CLEAR_IT(htim, TIM_IT_TRIGGER);
 80015a0:	687b      	ldr	r3, [r7, #4]
 80015a2:	681b      	ldr	r3, [r3, #0]
 80015a4:	f06f 0240 	mvn.w	r2, #64	; 0x40
 80015a8:	611a      	str	r2, [r3, #16]
#if (USE_HAL_TIM_REGISTER_CALLBACKS == 1)
      htim->TriggerCallback(htim);
#else
      HAL_TIM_TriggerCallback(htim);
 80015aa:	6878      	ldr	r0, [r7, #4]
 80015ac:	f000 f8fc 	bl	80017a8 <HAL_TIM_TriggerCallback>
#endif /* USE_HAL_TIM_REGISTER_CALLBACKS */
    }
  }
  /* TIM commutation event */
  if (__HAL_TIM_GET_FLAG(htim, TIM_FLAG_COM) != RESET)
 80015b0:	687b      	ldr	r3, [r7, #4]
 80015b2:	681b      	ldr	r3, [r3, #0]
 80015b4:	691b      	ldr	r3, [r3, #16]
 80015b6:	f003 0320 	and.w	r3, r3, #32
 80015ba:	2b20      	cmp	r3, #32
 80015bc:	d10e      	bne.n	80015dc <HAL_TIM_IRQHandler+0x208>
  {
    if (__HAL_TIM_GET_IT_SOURCE(htim, TIM_IT_COM) != RESET)
 80015be:	687b      	ldr	r3, [r7, #4]
 80015c0:	681b      	ldr	r3, [r3, #0]
 80015c2:	68db      	ldr	r3, [r3, #12]
 80015c4:	f003 0320 	and.w	r3, r3, #32
 80015c8:	2b20      	cmp	r3, #32
 80015ca:	d107      	bne.n	80015dc <HAL_TIM_IRQHandler+0x208>
    {
      __HAL_TIM_CLEAR_IT(htim, TIM_FLAG_COM);
 80015cc:	687b      	ldr	r3, [r7, #4]
 80015ce:	681b      	ldr	r3, [r3, #0]
 80015d0:	f06f 0220 	mvn.w	r2, #32
 80015d4:	611a      	str	r2, [r3, #16]
#if (USE_HAL_TIM_REGISTER_CALLBACKS == 1)
      htim->CommutationCallback(htim);
#else
      HAL_TIMEx_CommutCallback(htim);
 80015d6:	6878      	ldr	r0, [r7, #4]
 80015d8:	f000 fa36 	bl	8001a48 <HAL_TIMEx_CommutCallback>
#endif /* USE_HAL_TIM_REGISTER_CALLBACKS */
    }
  }
}
 80015dc:	bf00      	nop
 80015de:	3708      	adds	r7, #8
 80015e0:	46bd      	mov	sp, r7
 80015e2:	bd80      	pop	{r7, pc}

080015e4 <HAL_TIM_ConfigClockSource>:
  * @param  sClockSourceConfig pointer to a TIM_ClockConfigTypeDef structure that
  *         contains the clock source information for the TIM peripheral.
  * @retval HAL status
  */
HAL_StatusTypeDef HAL_TIM_ConfigClockSource(TIM_HandleTypeDef *htim, const TIM_ClockConfigTypeDef *sClockSourceConfig)
{
 80015e4:	b580      	push	{r7, lr}
 80015e6:	b084      	sub	sp, #16
 80015e8:	af00      	add	r7, sp, #0
 80015ea:	6078      	str	r0, [r7, #4]
 80015ec:	6039      	str	r1, [r7, #0]
  HAL_StatusTypeDef status = HAL_OK;
 80015ee:	2300      	movs	r3, #0
 80015f0:	73fb      	strb	r3, [r7, #15]
  uint32_t tmpsmcr;

  /* Process Locked */
  __HAL_LOCK(htim);
 80015f2:	687b      	ldr	r3, [r7, #4]
 80015f4:	f893 303c 	ldrb.w	r3, [r3, #60]	; 0x3c
 80015f8:	2b01      	cmp	r3, #1
 80015fa:	d101      	bne.n	8001600 <HAL_TIM_ConfigClockSource+0x1c>
 80015fc:	2302      	movs	r3, #2
 80015fe:	e0b4      	b.n	800176a <HAL_TIM_ConfigClockSource+0x186>
 8001600:	687b      	ldr	r3, [r7, #4]
 8001602:	2201      	movs	r2, #1
 8001604:	f883 203c 	strb.w	r2, [r3, #60]	; 0x3c

  htim->State = HAL_TIM_STATE_BUSY;
 8001608:	687b      	ldr	r3, [r7, #4]
 800160a:	2202      	movs	r2, #2
 800160c:	f883 203d 	strb.w	r2, [r3, #61]	; 0x3d

  /* Check the parameters */
  assert_param(IS_TIM_CLOCKSOURCE(sClockSourceConfig->ClockSource));

  /* Reset the SMS, TS, ECE, ETPS and ETRF bits */
  tmpsmcr = htim->Instance->SMCR;
 8001610:	687b      	ldr	r3, [r7, #4]
 8001612:	681b      	ldr	r3, [r3, #0]
 8001614:	689b      	ldr	r3, [r3, #8]
 8001616:	60bb      	str	r3, [r7, #8]
  tmpsmcr &= ~(TIM_SMCR_SMS | TIM_SMCR_TS);
 8001618:	68bb      	ldr	r3, [r7, #8]
 800161a:	f023 0377 	bic.w	r3, r3, #119	; 0x77
 800161e:	60bb      	str	r3, [r7, #8]
  tmpsmcr &= ~(TIM_SMCR_ETF | TIM_SMCR_ETPS | TIM_SMCR_ECE | TIM_SMCR_ETP);
 8001620:	68bb      	ldr	r3, [r7, #8]
 8001622:	f423 437f 	bic.w	r3, r3, #65280	; 0xff00
 8001626:	60bb      	str	r3, [r7, #8]
  htim->Instance->SMCR = tmpsmcr;
 8001628:	687b      	ldr	r3, [r7, #4]
 800162a:	681b      	ldr	r3, [r3, #0]
 800162c:	68ba      	ldr	r2, [r7, #8]
 800162e:	609a      	str	r2, [r3, #8]

  switch (sClockSourceConfig->ClockSource)
 8001630:	683b      	ldr	r3, [r7, #0]
 8001632:	681b      	ldr	r3, [r3, #0]
 8001634:	f5b3 5f00 	cmp.w	r3, #8192	; 0x2000
 8001638:	d03e      	beq.n	80016b8 <HAL_TIM_ConfigClockSource+0xd4>
 800163a:	f5b3 5f00 	cmp.w	r3, #8192	; 0x2000
 800163e:	f200 8087 	bhi.w	8001750 <HAL_TIM_ConfigClockSource+0x16c>
 8001642:	f5b3 5f80 	cmp.w	r3, #4096	; 0x1000
 8001646:	f000 8086 	beq.w	8001756 <HAL_TIM_ConfigClockSource+0x172>
 800164a:	f5b3 5f80 	cmp.w	r3, #4096	; 0x1000
 800164e:	d87f      	bhi.n	8001750 <HAL_TIM_ConfigClockSource+0x16c>
 8001650:	2b70      	cmp	r3, #112	; 0x70
 8001652:	d01a      	beq.n	800168a <HAL_TIM_ConfigClockSource+0xa6>
 8001654:	2b70      	cmp	r3, #112	; 0x70
 8001656:	d87b      	bhi.n	8001750 <HAL_TIM_ConfigClockSource+0x16c>
 8001658:	2b60      	cmp	r3, #96	; 0x60
 800165a:	d050      	beq.n	80016fe <HAL_TIM_ConfigClockSource+0x11a>
 800165c:	2b60      	cmp	r3, #96	; 0x60
 800165e:	d877      	bhi.n	8001750 <HAL_TIM_ConfigClockSource+0x16c>
 8001660:	2b50      	cmp	r3, #80	; 0x50
 8001662:	d03c      	beq.n	80016de <HAL_TIM_ConfigClockSource+0xfa>
 8001664:	2b50      	cmp	r3, #80	; 0x50
 8001666:	d873      	bhi.n	8001750 <HAL_TIM_ConfigClockSource+0x16c>
 8001668:	2b40      	cmp	r3, #64	; 0x40
 800166a:	d058      	beq.n	800171e <HAL_TIM_ConfigClockSource+0x13a>
 800166c:	2b40      	cmp	r3, #64	; 0x40
 800166e:	d86f      	bhi.n	8001750 <HAL_TIM_ConfigClockSource+0x16c>
 8001670:	2b30      	cmp	r3, #48	; 0x30
 8001672:	d064      	beq.n	800173e <HAL_TIM_ConfigClockSource+0x15a>
 8001674:	2b30      	cmp	r3, #48	; 0x30
 8001676:	d86b      	bhi.n	8001750 <HAL_TIM_ConfigClockSource+0x16c>
 8001678:	2b20      	cmp	r3, #32
 800167a:	d060      	beq.n	800173e <HAL_TIM_ConfigClockSource+0x15a>
 800167c:	2b20      	cmp	r3, #32
 800167e:	d867      	bhi.n	8001750 <HAL_TIM_ConfigClockSource+0x16c>
 8001680:	2b00      	cmp	r3, #0
 8001682:	d05c      	beq.n	800173e <HAL_TIM_ConfigClockSource+0x15a>
 8001684:	2b10      	cmp	r3, #16
 8001686:	d05a      	beq.n	800173e <HAL_TIM_ConfigClockSource+0x15a>
 8001688:	e062      	b.n	8001750 <HAL_TIM_ConfigClockSource+0x16c>
      assert_param(IS_TIM_CLOCKPRESCALER(sClockSourceConfig->ClockPrescaler));
      assert_param(IS_TIM_CLOCKPOLARITY(sClockSourceConfig->ClockPolarity));
      assert_param(IS_TIM_CLOCKFILTER(sClockSourceConfig->ClockFilter));

      /* Configure the ETR Clock source */
      TIM_ETR_SetConfig(htim->Instance,
 800168a:	687b      	ldr	r3, [r7, #4]
 800168c:	6818      	ldr	r0, [r3, #0]
 800168e:	683b      	ldr	r3, [r7, #0]
 8001690:	6899      	ldr	r1, [r3, #8]
 8001692:	683b      	ldr	r3, [r7, #0]
 8001694:	685a      	ldr	r2, [r3, #4]
 8001696:	683b      	ldr	r3, [r7, #0]
 8001698:	68db      	ldr	r3, [r3, #12]
 800169a:	f000 f95e 	bl	800195a <TIM_ETR_SetConfig>
                        sClockSourceConfig->ClockPrescaler,
                        sClockSourceConfig->ClockPolarity,
                        sClockSourceConfig->ClockFilter);

      /* Select the External clock mode1 and the ETRF trigger */
      tmpsmcr = htim->Instance->SMCR;
 800169e:	687b      	ldr	r3, [r7, #4]
 80016a0:	681b      	ldr	r3, [r3, #0]
 80016a2:	689b      	ldr	r3, [r3, #8]
 80016a4:	60bb      	str	r3, [r7, #8]
      tmpsmcr |= (TIM_SLAVEMODE_EXTERNAL1 | TIM_CLOCKSOURCE_ETRMODE1);
 80016a6:	68bb      	ldr	r3, [r7, #8]
 80016a8:	f043 0377 	orr.w	r3, r3, #119	; 0x77
 80016ac:	60bb      	str	r3, [r7, #8]
      /* Write to TIMx SMCR */
      htim->Instance->SMCR = tmpsmcr;
 80016ae:	687b      	ldr	r3, [r7, #4]
 80016b0:	681b      	ldr	r3, [r3, #0]
 80016b2:	68ba      	ldr	r2, [r7, #8]
 80016b4:	609a      	str	r2, [r3, #8]
      break;
 80016b6:	e04f      	b.n	8001758 <HAL_TIM_ConfigClockSource+0x174>
      assert_param(IS_TIM_CLOCKPRESCALER(sClockSourceConfig->ClockPrescaler));
      assert_param(IS_TIM_CLOCKPOLARITY(sClockSourceConfig->ClockPolarity));
      assert_param(IS_TIM_CLOCKFILTER(sClockSourceConfig->ClockFilter));

      /* Configure the ETR Clock source */
      TIM_ETR_SetConfig(htim->Instance,
 80016b8:	687b      	ldr	r3, [r7, #4]
 80016ba:	6818      	ldr	r0, [r3, #0]
 80016bc:	683b      	ldr	r3, [r7, #0]
 80016be:	6899      	ldr	r1, [r3, #8]
 80016c0:	683b      	ldr	r3, [r7, #0]
 80016c2:	685a      	ldr	r2, [r3, #4]
 80016c4:	683b      	ldr	r3, [r7, #0]
 80016c6:	68db      	ldr	r3, [r3, #12]
 80016c8:	f000 f947 	bl	800195a <TIM_ETR_SetConfig>
                        sClockSourceConfig->ClockPrescaler,
                        sClockSourceConfig->ClockPolarity,
                        sClockSourceConfig->ClockFilter);
      /* Enable the External clock mode2 */
      htim->Instance->SMCR |= TIM_SMCR_ECE;
 80016cc:	687b      	ldr	r3, [r7, #4]
 80016ce:	681b      	ldr	r3, [r3, #0]
 80016d0:	689a      	ldr	r2, [r3, #8]
 80016d2:	687b      	ldr	r3, [r7, #4]
 80016d4:	681b      	ldr	r3, [r3, #0]
 80016d6:	f442 4280 	orr.w	r2, r2, #16384	; 0x4000
 80016da:	609a      	str	r2, [r3, #8]
      break;
 80016dc:	e03c      	b.n	8001758 <HAL_TIM_ConfigClockSource+0x174>

      /* Check TI1 input conditioning related parameters */
      assert_param(IS_TIM_CLOCKPOLARITY(sClockSourceConfig->ClockPolarity));
      assert_param(IS_TIM_CLOCKFILTER(sClockSourceConfig->ClockFilter));

      TIM_TI1_ConfigInputStage(htim->Instance,
 80016de:	687b      	ldr	r3, [r7, #4]
 80016e0:	6818      	ldr	r0, [r3, #0]
 80016e2:	683b      	ldr	r3, [r7, #0]
 80016e4:	6859      	ldr	r1, [r3, #4]
 80016e6:	683b      	ldr	r3, [r7, #0]
 80016e8:	68db      	ldr	r3, [r3, #12]
 80016ea:	461a      	mov	r2, r3
 80016ec:	f000 f8be 	bl	800186c <TIM_TI1_ConfigInputStage>
                               sClockSourceConfig->ClockPolarity,
                               sClockSourceConfig->ClockFilter);
      TIM_ITRx_SetConfig(htim->Instance, TIM_CLOCKSOURCE_TI1);
 80016f0:	687b      	ldr	r3, [r7, #4]
 80016f2:	681b      	ldr	r3, [r3, #0]
 80016f4:	2150      	movs	r1, #80	; 0x50
 80016f6:	4618      	mov	r0, r3
 80016f8:	f000 f915 	bl	8001926 <TIM_ITRx_SetConfig>
      break;
 80016fc:	e02c      	b.n	8001758 <HAL_TIM_ConfigClockSource+0x174>

      /* Check TI2 input conditioning related parameters */
      assert_param(IS_TIM_CLOCKPOLARITY(sClockSourceConfig->ClockPolarity));
      assert_param(IS_TIM_CLOCKFILTER(sClockSourceConfig->ClockFilter));

      TIM_TI2_ConfigInputStage(htim->Instance,
 80016fe:	687b      	ldr	r3, [r7, #4]
 8001700:	6818      	ldr	r0, [r3, #0]
 8001702:	683b      	ldr	r3, [r7, #0]
 8001704:	6859      	ldr	r1, [r3, #4]
 8001706:	683b      	ldr	r3, [r7, #0]
 8001708:	68db      	ldr	r3, [r3, #12]
 800170a:	461a      	mov	r2, r3
 800170c:	f000 f8dc 	bl	80018c8 <TIM_TI2_ConfigInputStage>
                               sClockSourceConfig->ClockPolarity,
                               sClockSourceConfig->ClockFilter);
      TIM_ITRx_SetConfig(htim->Instance, TIM_CLOCKSOURCE_TI2);
 8001710:	687b      	ldr	r3, [r7, #4]
 8001712:	681b      	ldr	r3, [r3, #0]
 8001714:	2160      	movs	r1, #96	; 0x60
 8001716:	4618      	mov	r0, r3
 8001718:	f000 f905 	bl	8001926 <TIM_ITRx_SetConfig>
      break;
 800171c:	e01c      	b.n	8001758 <HAL_TIM_ConfigClockSource+0x174>

      /* Check TI1 input conditioning related parameters */
      assert_param(IS_TIM_CLOCKPOLARITY(sClockSourceConfig->ClockPolarity));
      assert_param(IS_TIM_CLOCKFILTER(sClockSourceConfig->ClockFilter));

      TIM_TI1_ConfigInputStage(htim->Instance,
 800171e:	687b      	ldr	r3, [r7, #4]
 8001720:	6818      	ldr	r0, [r3, #0]
 8001722:	683b      	ldr	r3, [r7, #0]
 8001724:	6859      	ldr	r1, [r3, #4]
 8001726:	683b      	ldr	r3, [r7, #0]
 8001728:	68db      	ldr	r3, [r3, #12]
 800172a:	461a      	mov	r2, r3
 800172c:	f000 f89e 	bl	800186c <TIM_TI1_ConfigInputStage>
                               sClockSourceConfig->ClockPolarity,
                               sClockSourceConfig->ClockFilter);
      TIM_ITRx_SetConfig(htim->Instance, TIM_CLOCKSOURCE_TI1ED);
 8001730:	687b      	ldr	r3, [r7, #4]
 8001732:	681b      	ldr	r3, [r3, #0]
 8001734:	2140      	movs	r1, #64	; 0x40
 8001736:	4618      	mov	r0, r3
 8001738:	f000 f8f5 	bl	8001926 <TIM_ITRx_SetConfig>
      break;
 800173c:	e00c      	b.n	8001758 <HAL_TIM_ConfigClockSource+0x174>
    case TIM_CLOCKSOURCE_ITR3:
    {
      /* Check whether or not the timer instance supports internal trigger input */
      assert_param(IS_TIM_CLOCKSOURCE_ITRX_INSTANCE(htim->Instance));

      TIM_ITRx_SetConfig(htim->Instance, sClockSourceConfig->ClockSource);
 800173e:	687b      	ldr	r3, [r7, #4]
 8001740:	681a      	ldr	r2, [r3, #0]
 8001742:	683b      	ldr	r3, [r7, #0]
 8001744:	681b      	ldr	r3, [r3, #0]
 8001746:	4619      	mov	r1, r3
 8001748:	4610      	mov	r0, r2
 800174a:	f000 f8ec 	bl	8001926 <TIM_ITRx_SetConfig>
      break;
 800174e:	e003      	b.n	8001758 <HAL_TIM_ConfigClockSource+0x174>
    }

    default:
      status = HAL_ERROR;
 8001750:	2301      	movs	r3, #1
 8001752:	73fb      	strb	r3, [r7, #15]
      break;
 8001754:	e000      	b.n	8001758 <HAL_TIM_ConfigClockSource+0x174>
      break;
 8001756:	bf00      	nop
  }
  htim->State = HAL_TIM_STATE_READY;
 8001758:	687b      	ldr	r3, [r7, #4]
 800175a:	2201      	movs	r2, #1
 800175c:	f883 203d 	strb.w	r2, [r3, #61]	; 0x3d

  __HAL_UNLOCK(htim);
 8001760:	687b      	ldr	r3, [r7, #4]
 8001762:	2200      	movs	r2, #0
 8001764:	f883 203c 	strb.w	r2, [r3, #60]	; 0x3c

  return status;
 8001768:	7bfb      	ldrb	r3, [r7, #15]
}
 800176a:	4618      	mov	r0, r3
 800176c:	3710      	adds	r7, #16
 800176e:	46bd      	mov	sp, r7
 8001770:	bd80      	pop	{r7, pc}

08001772 <HAL_TIM_OC_DelayElapsedCallback>:
  * @brief  Output Compare callback in non-blocking mode
  * @param  htim TIM OC handle
  * @retval None
  */
__weak void HAL_TIM_OC_DelayElapsedCallback(TIM_HandleTypeDef *htim)
{
 8001772:	b480      	push	{r7}
 8001774:	b083      	sub	sp, #12
 8001776:	af00      	add	r7, sp, #0
 8001778:	6078      	str	r0, [r7, #4]
  UNUSED(htim);

  /* NOTE : This function should not be modified, when the callback is needed,
            the HAL_TIM_OC_DelayElapsedCallback could be implemented in the user file
   */
}
 800177a:	bf00      	nop
 800177c:	370c      	adds	r7, #12
 800177e:	46bd      	mov	sp, r7
 8001780:	bc80      	pop	{r7}
 8001782:	4770      	bx	lr

08001784 <HAL_TIM_IC_CaptureCallback>:
  * @brief  Input Capture callback in non-blocking mode
  * @param  htim TIM IC handle
  * @retval None
  */
__weak void HAL_TIM_IC_CaptureCallback(TIM_HandleTypeDef *htim)
{
 8001784:	b480      	push	{r7}
 8001786:	b083      	sub	sp, #12
 8001788:	af00      	add	r7, sp, #0
 800178a:	6078      	str	r0, [r7, #4]
  UNUSED(htim);

  /* NOTE : This function should not be modified, when the callback is needed,
            the HAL_TIM_IC_CaptureCallback could be implemented in the user file
   */
}
 800178c:	bf00      	nop
 800178e:	370c      	adds	r7, #12
 8001790:	46bd      	mov	sp, r7
 8001792:	bc80      	pop	{r7}
 8001794:	4770      	bx	lr

08001796 <HAL_TIM_PWM_PulseFinishedCallback>:
  * @brief  PWM Pulse finished callback in non-blocking mode
  * @param  htim TIM handle
  * @retval None
  */
__weak void HAL_TIM_PWM_PulseFinishedCallback(TIM_HandleTypeDef *htim)
{
 8001796:	b480      	push	{r7}
 8001798:	b083      	sub	sp, #12
 800179a:	af00      	add	r7, sp, #0
 800179c:	6078      	str	r0, [r7, #4]
  UNUSED(htim);

  /* NOTE : This function should not be modified, when the callback is needed,
            the HAL_TIM_PWM_PulseFinishedCallback could be implemented in the user file
   */
}
 800179e:	bf00      	nop
 80017a0:	370c      	adds	r7, #12
 80017a2:	46bd      	mov	sp, r7
 80017a4:	bc80      	pop	{r7}
 80017a6:	4770      	bx	lr

080017a8 <HAL_TIM_TriggerCallback>:
  * @brief  Hall Trigger detection callback in non-blocking mode
  * @param  htim TIM handle
  * @retval None
  */
__weak void HAL_TIM_TriggerCallback(TIM_HandleTypeDef *htim)
{
 80017a8:	b480      	push	{r7}
 80017aa:	b083      	sub	sp, #12
 80017ac:	af00      	add	r7, sp, #0
 80017ae:	6078      	str	r0, [r7, #4]
  UNUSED(htim);

  /* NOTE : This function should not be modified, when the callback is needed,
            the HAL_TIM_TriggerCallback could be implemented in the user file
   */
}
 80017b0:	bf00      	nop
 80017b2:	370c      	adds	r7, #12
 80017b4:	46bd      	mov	sp, r7
 80017b6:	bc80      	pop	{r7}
 80017b8:	4770      	bx	lr
	...

080017bc <TIM_Base_SetConfig>:
  * @param  TIMx TIM peripheral
  * @param  Structure TIM Base configuration structure
  * @retval None
  */
void TIM_Base_SetConfig(TIM_TypeDef *TIMx, const TIM_Base_InitTypeDef *Structure)
{
 80017bc:	b480      	push	{r7}
 80017be:	b085      	sub	sp, #20
 80017c0:	af00      	add	r7, sp, #0
 80017c2:	6078      	str	r0, [r7, #4]
 80017c4:	6039      	str	r1, [r7, #0]
  uint32_t tmpcr1;
  tmpcr1 = TIMx->CR1;
 80017c6:	687b      	ldr	r3, [r7, #4]
 80017c8:	681b      	ldr	r3, [r3, #0]
 80017ca:	60fb      	str	r3, [r7, #12]

  /* Set TIM Time Base Unit parameters ---------------------------------------*/
  if (IS_TIM_COUNTER_MODE_SELECT_INSTANCE(TIMx))
 80017cc:	687b      	ldr	r3, [r7, #4]
 80017ce:	4a25      	ldr	r2, [pc, #148]	; (8001864 <TIM_Base_SetConfig+0xa8>)
 80017d0:	4293      	cmp	r3, r2
 80017d2:	d007      	beq.n	80017e4 <TIM_Base_SetConfig+0x28>
 80017d4:	687b      	ldr	r3, [r7, #4]
 80017d6:	f1b3 4f80 	cmp.w	r3, #1073741824	; 0x40000000
 80017da:	d003      	beq.n	80017e4 <TIM_Base_SetConfig+0x28>
 80017dc:	687b      	ldr	r3, [r7, #4]
 80017de:	4a22      	ldr	r2, [pc, #136]	; (8001868 <TIM_Base_SetConfig+0xac>)
 80017e0:	4293      	cmp	r3, r2
 80017e2:	d108      	bne.n	80017f6 <TIM_Base_SetConfig+0x3a>
  {
    /* Select the Counter Mode */
    tmpcr1 &= ~(TIM_CR1_DIR | TIM_CR1_CMS);
 80017e4:	68fb      	ldr	r3, [r7, #12]
 80017e6:	f023 0370 	bic.w	r3, r3, #112	; 0x70
 80017ea:	60fb      	str	r3, [r7, #12]
    tmpcr1 |= Structure->CounterMode;
 80017ec:	683b      	ldr	r3, [r7, #0]
 80017ee:	685b      	ldr	r3, [r3, #4]
 80017f0:	68fa      	ldr	r2, [r7, #12]
 80017f2:	4313      	orrs	r3, r2
 80017f4:	60fb      	str	r3, [r7, #12]
  }

  if (IS_TIM_CLOCK_DIVISION_INSTANCE(TIMx))
 80017f6:	687b      	ldr	r3, [r7, #4]
 80017f8:	4a1a      	ldr	r2, [pc, #104]	; (8001864 <TIM_Base_SetConfig+0xa8>)
 80017fa:	4293      	cmp	r3, r2
 80017fc:	d007      	beq.n	800180e <TIM_Base_SetConfig+0x52>
 80017fe:	687b      	ldr	r3, [r7, #4]
 8001800:	f1b3 4f80 	cmp.w	r3, #1073741824	; 0x40000000
 8001804:	d003      	beq.n	800180e <TIM_Base_SetConfig+0x52>
 8001806:	687b      	ldr	r3, [r7, #4]
 8001808:	4a17      	ldr	r2, [pc, #92]	; (8001868 <TIM_Base_SetConfig+0xac>)
 800180a:	4293      	cmp	r3, r2
 800180c:	d108      	bne.n	8001820 <TIM_Base_SetConfig+0x64>
  {
    /* Set the clock division */
    tmpcr1 &= ~TIM_CR1_CKD;
 800180e:	68fb      	ldr	r3, [r7, #12]
 8001810:	f423 7340 	bic.w	r3, r3, #768	; 0x300
 8001814:	60fb      	str	r3, [r7, #12]
    tmpcr1 |= (uint32_t)Structure->ClockDivision;
 8001816:	683b      	ldr	r3, [r7, #0]
 8001818:	68db      	ldr	r3, [r3, #12]
 800181a:	68fa      	ldr	r2, [r7, #12]
 800181c:	4313      	orrs	r3, r2
 800181e:	60fb      	str	r3, [r7, #12]
  }

  /* Set the auto-reload preload */
  MODIFY_REG(tmpcr1, TIM_CR1_ARPE, Structure->AutoReloadPreload);
 8001820:	68fb      	ldr	r3, [r7, #12]
 8001822:	f023 0280 	bic.w	r2, r3, #128	; 0x80
 8001826:	683b      	ldr	r3, [r7, #0]
 8001828:	695b      	ldr	r3, [r3, #20]
 800182a:	4313      	orrs	r3, r2
 800182c:	60fb      	str	r3, [r7, #12]

  TIMx->CR1 = tmpcr1;
 800182e:	687b      	ldr	r3, [r7, #4]
 8001830:	68fa      	ldr	r2, [r7, #12]
 8001832:	601a      	str	r2, [r3, #0]

  /* Set the Autoreload value */
  TIMx->ARR = (uint32_t)Structure->Period ;
 8001834:	683b      	ldr	r3, [r7, #0]
 8001836:	689a      	ldr	r2, [r3, #8]
 8001838:	687b      	ldr	r3, [r7, #4]
 800183a:	62da      	str	r2, [r3, #44]	; 0x2c

  /* Set the Prescaler value */
  TIMx->PSC = Structure->Prescaler;
 800183c:	683b      	ldr	r3, [r7, #0]
 800183e:	681a      	ldr	r2, [r3, #0]
 8001840:	687b      	ldr	r3, [r7, #4]
 8001842:	629a      	str	r2, [r3, #40]	; 0x28

  if (IS_TIM_REPETITION_COUNTER_INSTANCE(TIMx))
 8001844:	687b      	ldr	r3, [r7, #4]
 8001846:	4a07      	ldr	r2, [pc, #28]	; (8001864 <TIM_Base_SetConfig+0xa8>)
 8001848:	4293      	cmp	r3, r2
 800184a:	d103      	bne.n	8001854 <TIM_Base_SetConfig+0x98>
  {
    /* Set the Repetition Counter value */
    TIMx->RCR = Structure->RepetitionCounter;
 800184c:	683b      	ldr	r3, [r7, #0]
 800184e:	691a      	ldr	r2, [r3, #16]
 8001850:	687b      	ldr	r3, [r7, #4]
 8001852:	631a      	str	r2, [r3, #48]	; 0x30
  }

  /* Generate an update event to reload the Prescaler
     and the repetition counter (only for advanced timer) value immediately */
  TIMx->EGR = TIM_EGR_UG;
 8001854:	687b      	ldr	r3, [r7, #4]
 8001856:	2201      	movs	r2, #1
 8001858:	615a      	str	r2, [r3, #20]
}
 800185a:	bf00      	nop
 800185c:	3714      	adds	r7, #20
 800185e:	46bd      	mov	sp, r7
 8001860:	bc80      	pop	{r7}
 8001862:	4770      	bx	lr
 8001864:	40012c00 	.word	0x40012c00
 8001868:	40000400 	.word	0x40000400

0800186c <TIM_TI1_ConfigInputStage>:
  * @param  TIM_ICFilter Specifies the Input Capture Filter.
  *          This parameter must be a value between 0x00 and 0x0F.
  * @retval None
  */
static void TIM_TI1_ConfigInputStage(TIM_TypeDef *TIMx, uint32_t TIM_ICPolarity, uint32_t TIM_ICFilter)
{
 800186c:	b480      	push	{r7}
 800186e:	b087      	sub	sp, #28
 8001870:	af00      	add	r7, sp, #0
 8001872:	60f8      	str	r0, [r7, #12]
 8001874:	60b9      	str	r1, [r7, #8]
 8001876:	607a      	str	r2, [r7, #4]
  uint32_t tmpccmr1;
  uint32_t tmpccer;

  /* Disable the Channel 1: Reset the CC1E Bit */
  tmpccer = TIMx->CCER;
 8001878:	68fb      	ldr	r3, [r7, #12]
 800187a:	6a1b      	ldr	r3, [r3, #32]
 800187c:	617b      	str	r3, [r7, #20]
  TIMx->CCER &= ~TIM_CCER_CC1E;
 800187e:	68fb      	ldr	r3, [r7, #12]
 8001880:	6a1b      	ldr	r3, [r3, #32]
 8001882:	f023 0201 	bic.w	r2, r3, #1
 8001886:	68fb      	ldr	r3, [r7, #12]
 8001888:	621a      	str	r2, [r3, #32]
  tmpccmr1 = TIMx->CCMR1;
 800188a:	68fb      	ldr	r3, [r7, #12]
 800188c:	699b      	ldr	r3, [r3, #24]
 800188e:	613b      	str	r3, [r7, #16]

  /* Set the filter */
  tmpccmr1 &= ~TIM_CCMR1_IC1F;
 8001890:	693b      	ldr	r3, [r7, #16]
 8001892:	f023 03f0 	bic.w	r3, r3, #240	; 0xf0
 8001896:	613b      	str	r3, [r7, #16]
  tmpccmr1 |= (TIM_ICFilter << 4U);
 8001898:	687b      	ldr	r3, [r7, #4]
 800189a:	011b      	lsls	r3, r3, #4
 800189c:	693a      	ldr	r2, [r7, #16]
 800189e:	4313      	orrs	r3, r2
 80018a0:	613b      	str	r3, [r7, #16]

  /* Select the Polarity and set the CC1E Bit */
  tmpccer &= ~(TIM_CCER_CC1P | TIM_CCER_CC1NP);
 80018a2:	697b      	ldr	r3, [r7, #20]
 80018a4:	f023 030a 	bic.w	r3, r3, #10
 80018a8:	617b      	str	r3, [r7, #20]
  tmpccer |= TIM_ICPolarity;
 80018aa:	697a      	ldr	r2, [r7, #20]
 80018ac:	68bb      	ldr	r3, [r7, #8]
 80018ae:	4313      	orrs	r3, r2
 80018b0:	617b      	str	r3, [r7, #20]

  /* Write to TIMx CCMR1 and CCER registers */
  TIMx->CCMR1 = tmpccmr1;
 80018b2:	68fb      	ldr	r3, [r7, #12]
 80018b4:	693a      	ldr	r2, [r7, #16]
 80018b6:	619a      	str	r2, [r3, #24]
  TIMx->CCER = tmpccer;
 80018b8:	68fb      	ldr	r3, [r7, #12]
 80018ba:	697a      	ldr	r2, [r7, #20]
 80018bc:	621a      	str	r2, [r3, #32]
}
 80018be:	bf00      	nop
 80018c0:	371c      	adds	r7, #28
 80018c2:	46bd      	mov	sp, r7
 80018c4:	bc80      	pop	{r7}
 80018c6:	4770      	bx	lr

080018c8 <TIM_TI2_ConfigInputStage>:
  * @param  TIM_ICFilter Specifies the Input Capture Filter.
  *          This parameter must be a value between 0x00 and 0x0F.
  * @retval None
  */
static void TIM_TI2_ConfigInputStage(TIM_TypeDef *TIMx, uint32_t TIM_ICPolarity, uint32_t TIM_ICFilter)
{
 80018c8:	b480      	push	{r7}
 80018ca:	b087      	sub	sp, #28
 80018cc:	af00      	add	r7, sp, #0
 80018ce:	60f8      	str	r0, [r7, #12]
 80018d0:	60b9      	str	r1, [r7, #8]
 80018d2:	607a      	str	r2, [r7, #4]
  uint32_t tmpccmr1;
  uint32_t tmpccer;

  /* Disable the Channel 2: Reset the CC2E Bit */
  tmpccer = TIMx->CCER;
 80018d4:	68fb      	ldr	r3, [r7, #12]
 80018d6:	6a1b      	ldr	r3, [r3, #32]
 80018d8:	617b      	str	r3, [r7, #20]
  TIMx->CCER &= ~TIM_CCER_CC2E;
 80018da:	68fb      	ldr	r3, [r7, #12]
 80018dc:	6a1b      	ldr	r3, [r3, #32]
 80018de:	f023 0210 	bic.w	r2, r3, #16
 80018e2:	68fb      	ldr	r3, [r7, #12]
 80018e4:	621a      	str	r2, [r3, #32]
  tmpccmr1 = TIMx->CCMR1;
 80018e6:	68fb      	ldr	r3, [r7, #12]
 80018e8:	699b      	ldr	r3, [r3, #24]
 80018ea:	613b      	str	r3, [r7, #16]

  /* Set the filter */
  tmpccmr1 &= ~TIM_CCMR1_IC2F;
 80018ec:	693b      	ldr	r3, [r7, #16]
 80018ee:	f423 4370 	bic.w	r3, r3, #61440	; 0xf000
 80018f2:	613b      	str	r3, [r7, #16]
  tmpccmr1 |= (TIM_ICFilter << 12U);
 80018f4:	687b      	ldr	r3, [r7, #4]
 80018f6:	031b      	lsls	r3, r3, #12
 80018f8:	693a      	ldr	r2, [r7, #16]
 80018fa:	4313      	orrs	r3, r2
 80018fc:	613b      	str	r3, [r7, #16]

  /* Select the Polarity and set the CC2E Bit */
  tmpccer &= ~(TIM_CCER_CC2P | TIM_CCER_CC2NP);
 80018fe:	697b      	ldr	r3, [r7, #20]
 8001900:	f023 03a0 	bic.w	r3, r3, #160	; 0xa0
 8001904:	617b      	str	r3, [r7, #20]
  tmpccer |= (TIM_ICPolarity << 4U);
 8001906:	68bb      	ldr	r3, [r7, #8]
 8001908:	011b      	lsls	r3, r3, #4
 800190a:	697a      	ldr	r2, [r7, #20]
 800190c:	4313      	orrs	r3, r2
 800190e:	617b      	str	r3, [r7, #20]

  /* Write to TIMx CCMR1 and CCER registers */
  TIMx->CCMR1 = tmpccmr1 ;
 8001910:	68fb      	ldr	r3, [r7, #12]
 8001912:	693a      	ldr	r2, [r7, #16]
 8001914:	619a      	str	r2, [r3, #24]
  TIMx->CCER = tmpccer;
 8001916:	68fb      	ldr	r3, [r7, #12]
 8001918:	697a      	ldr	r2, [r7, #20]
 800191a:	621a      	str	r2, [r3, #32]
}
 800191c:	bf00      	nop
 800191e:	371c      	adds	r7, #28
 8001920:	46bd      	mov	sp, r7
 8001922:	bc80      	pop	{r7}
 8001924:	4770      	bx	lr

08001926 <TIM_ITRx_SetConfig>:
  *            @arg TIM_TS_TI2FP2: Filtered Timer Input 2
  *            @arg TIM_TS_ETRF: External Trigger input
  * @retval None
  */
static void TIM_ITRx_SetConfig(TIM_TypeDef *TIMx, uint32_t InputTriggerSource)
{
 8001926:	b480      	push	{r7}
 8001928:	b085      	sub	sp, #20
 800192a:	af00      	add	r7, sp, #0
 800192c:	6078      	str	r0, [r7, #4]
 800192e:	6039      	str	r1, [r7, #0]
  uint32_t tmpsmcr;

  /* Get the TIMx SMCR register value */
  tmpsmcr = TIMx->SMCR;
 8001930:	687b      	ldr	r3, [r7, #4]
 8001932:	689b      	ldr	r3, [r3, #8]
 8001934:	60fb      	str	r3, [r7, #12]
  /* Reset the TS Bits */
  tmpsmcr &= ~TIM_SMCR_TS;
 8001936:	68fb      	ldr	r3, [r7, #12]
 8001938:	f023 0370 	bic.w	r3, r3, #112	; 0x70
 800193c:	60fb      	str	r3, [r7, #12]
  /* Set the Input Trigger source and the slave mode*/
  tmpsmcr |= (InputTriggerSource | TIM_SLAVEMODE_EXTERNAL1);
 800193e:	683a      	ldr	r2, [r7, #0]
 8001940:	68fb      	ldr	r3, [r7, #12]
 8001942:	4313      	orrs	r3, r2
 8001944:	f043 0307 	orr.w	r3, r3, #7
 8001948:	60fb      	str	r3, [r7, #12]
  /* Write to TIMx SMCR */
  TIMx->SMCR = tmpsmcr;
 800194a:	687b      	ldr	r3, [r7, #4]
 800194c:	68fa      	ldr	r2, [r7, #12]
 800194e:	609a      	str	r2, [r3, #8]
}
 8001950:	bf00      	nop
 8001952:	3714      	adds	r7, #20
 8001954:	46bd      	mov	sp, r7
 8001956:	bc80      	pop	{r7}
 8001958:	4770      	bx	lr

0800195a <TIM_ETR_SetConfig>:
  *          This parameter must be a value between 0x00 and 0x0F
  * @retval None
  */
void TIM_ETR_SetConfig(TIM_TypeDef *TIMx, uint32_t TIM_ExtTRGPrescaler,
                       uint32_t TIM_ExtTRGPolarity, uint32_t ExtTRGFilter)
{
 800195a:	b480      	push	{r7}
 800195c:	b087      	sub	sp, #28
 800195e:	af00      	add	r7, sp, #0
 8001960:	60f8      	str	r0, [r7, #12]
 8001962:	60b9      	str	r1, [r7, #8]
 8001964:	607a      	str	r2, [r7, #4]
 8001966:	603b      	str	r3, [r7, #0]
  uint32_t tmpsmcr;

  tmpsmcr = TIMx->SMCR;
 8001968:	68fb      	ldr	r3, [r7, #12]
 800196a:	689b      	ldr	r3, [r3, #8]
 800196c:	617b      	str	r3, [r7, #20]

  /* Reset the ETR Bits */
  tmpsmcr &= ~(TIM_SMCR_ETF | TIM_SMCR_ETPS | TIM_SMCR_ECE | TIM_SMCR_ETP);
 800196e:	697b      	ldr	r3, [r7, #20]
 8001970:	f423 437f 	bic.w	r3, r3, #65280	; 0xff00
 8001974:	617b      	str	r3, [r7, #20]

  /* Set the Prescaler, the Filter value and the Polarity */
  tmpsmcr |= (uint32_t)(TIM_ExtTRGPrescaler | (TIM_ExtTRGPolarity | (ExtTRGFilter << 8U)));
 8001976:	683b      	ldr	r3, [r7, #0]
 8001978:	021a      	lsls	r2, r3, #8
 800197a:	687b      	ldr	r3, [r7, #4]
 800197c:	431a      	orrs	r2, r3
 800197e:	68bb      	ldr	r3, [r7, #8]
 8001980:	4313      	orrs	r3, r2
 8001982:	697a      	ldr	r2, [r7, #20]
 8001984:	4313      	orrs	r3, r2
 8001986:	617b      	str	r3, [r7, #20]

  /* Write to TIMx SMCR */
  TIMx->SMCR = tmpsmcr;
 8001988:	68fb      	ldr	r3, [r7, #12]
 800198a:	697a      	ldr	r2, [r7, #20]
 800198c:	609a      	str	r2, [r3, #8]
}
 800198e:	bf00      	nop
 8001990:	371c      	adds	r7, #28
 8001992:	46bd      	mov	sp, r7
 8001994:	bc80      	pop	{r7}
 8001996:	4770      	bx	lr

08001998 <HAL_TIMEx_MasterConfigSynchronization>:
  *         mode.
  * @retval HAL status
  */
HAL_StatusTypeDef HAL_TIMEx_MasterConfigSynchronization(TIM_HandleTypeDef *htim,
                                                        const TIM_MasterConfigTypeDef *sMasterConfig)
{
 8001998:	b480      	push	{r7}
 800199a:	b085      	sub	sp, #20
 800199c:	af00      	add	r7, sp, #0
 800199e:	6078      	str	r0, [r7, #4]
 80019a0:	6039      	str	r1, [r7, #0]
  assert_param(IS_TIM_MASTER_INSTANCE(htim->Instance));
  assert_param(IS_TIM_TRGO_SOURCE(sMasterConfig->MasterOutputTrigger));
  assert_param(IS_TIM_MSM_STATE(sMasterConfig->MasterSlaveMode));

  /* Check input state */
  __HAL_LOCK(htim);
 80019a2:	687b      	ldr	r3, [r7, #4]
 80019a4:	f893 303c 	ldrb.w	r3, [r3, #60]	; 0x3c
 80019a8:	2b01      	cmp	r3, #1
 80019aa:	d101      	bne.n	80019b0 <HAL_TIMEx_MasterConfigSynchronization+0x18>
 80019ac:	2302      	movs	r3, #2
 80019ae:	e041      	b.n	8001a34 <HAL_TIMEx_MasterConfigSynchronization+0x9c>
 80019b0:	687b      	ldr	r3, [r7, #4]
 80019b2:	2201      	movs	r2, #1
 80019b4:	f883 203c 	strb.w	r2, [r3, #60]	; 0x3c

  /* Change the handler state */
  htim->State = HAL_TIM_STATE_BUSY;
 80019b8:	687b      	ldr	r3, [r7, #4]
 80019ba:	2202      	movs	r2, #2
 80019bc:	f883 203d 	strb.w	r2, [r3, #61]	; 0x3d

  /* Get the TIMx CR2 register value */
  tmpcr2 = htim->Instance->CR2;
 80019c0:	687b      	ldr	r3, [r7, #4]
 80019c2:	681b      	ldr	r3, [r3, #0]
 80019c4:	685b      	ldr	r3, [r3, #4]
 80019c6:	60fb      	str	r3, [r7, #12]

  /* Get the TIMx SMCR register value */
  tmpsmcr = htim->Instance->SMCR;
 80019c8:	687b      	ldr	r3, [r7, #4]
 80019ca:	681b      	ldr	r3, [r3, #0]
 80019cc:	689b      	ldr	r3, [r3, #8]
 80019ce:	60bb      	str	r3, [r7, #8]

  /* Reset the MMS Bits */
  tmpcr2 &= ~TIM_CR2_MMS;
 80019d0:	68fb      	ldr	r3, [r7, #12]
 80019d2:	f023 0370 	bic.w	r3, r3, #112	; 0x70
 80019d6:	60fb      	str	r3, [r7, #12]
  /* Select the TRGO source */
  tmpcr2 |=  sMasterConfig->MasterOutputTrigger;
 80019d8:	683b      	ldr	r3, [r7, #0]
 80019da:	681b      	ldr	r3, [r3, #0]
 80019dc:	68fa      	ldr	r2, [r7, #12]
 80019de:	4313      	orrs	r3, r2
 80019e0:	60fb      	str	r3, [r7, #12]

  /* Update TIMx CR2 */
  htim->Instance->CR2 = tmpcr2;
 80019e2:	687b      	ldr	r3, [r7, #4]
 80019e4:	681b      	ldr	r3, [r3, #0]
 80019e6:	68fa      	ldr	r2, [r7, #12]
 80019e8:	605a      	str	r2, [r3, #4]

  if (IS_TIM_SLAVE_INSTANCE(htim->Instance))
 80019ea:	687b      	ldr	r3, [r7, #4]
 80019ec:	681b      	ldr	r3, [r3, #0]
 80019ee:	4a14      	ldr	r2, [pc, #80]	; (8001a40 <HAL_TIMEx_MasterConfigSynchronization+0xa8>)
 80019f0:	4293      	cmp	r3, r2
 80019f2:	d009      	beq.n	8001a08 <HAL_TIMEx_MasterConfigSynchronization+0x70>
 80019f4:	687b      	ldr	r3, [r7, #4]
 80019f6:	681b      	ldr	r3, [r3, #0]
 80019f8:	f1b3 4f80 	cmp.w	r3, #1073741824	; 0x40000000
 80019fc:	d004      	beq.n	8001a08 <HAL_TIMEx_MasterConfigSynchronization+0x70>
 80019fe:	687b      	ldr	r3, [r7, #4]
 8001a00:	681b      	ldr	r3, [r3, #0]
 8001a02:	4a10      	ldr	r2, [pc, #64]	; (8001a44 <HAL_TIMEx_MasterConfigSynchronization+0xac>)
 8001a04:	4293      	cmp	r3, r2
 8001a06:	d10c      	bne.n	8001a22 <HAL_TIMEx_MasterConfigSynchronization+0x8a>
  {
    /* Reset the MSM Bit */
    tmpsmcr &= ~TIM_SMCR_MSM;
 8001a08:	68bb      	ldr	r3, [r7, #8]
 8001a0a:	f023 0380 	bic.w	r3, r3, #128	; 0x80
 8001a0e:	60bb      	str	r3, [r7, #8]
    /* Set master mode */
    tmpsmcr |= sMasterConfig->MasterSlaveMode;
 8001a10:	683b      	ldr	r3, [r7, #0]
 8001a12:	685b      	ldr	r3, [r3, #4]
 8001a14:	68ba      	ldr	r2, [r7, #8]
 8001a16:	4313      	orrs	r3, r2
 8001a18:	60bb      	str	r3, [r7, #8]

    /* Update TIMx SMCR */
    htim->Instance->SMCR = tmpsmcr;
 8001a1a:	687b      	ldr	r3, [r7, #4]
 8001a1c:	681b      	ldr	r3, [r3, #0]
 8001a1e:	68ba      	ldr	r2, [r7, #8]
 8001a20:	609a      	str	r2, [r3, #8]
  }

  /* Change the htim state */
  htim->State = HAL_TIM_STATE_READY;
 8001a22:	687b      	ldr	r3, [r7, #4]
 8001a24:	2201      	movs	r2, #1
 8001a26:	f883 203d 	strb.w	r2, [r3, #61]	; 0x3d

  __HAL_UNLOCK(htim);
 8001a2a:	687b      	ldr	r3, [r7, #4]
 8001a2c:	2200      	movs	r2, #0
 8001a2e:	f883 203c 	strb.w	r2, [r3, #60]	; 0x3c

  return HAL_OK;
 8001a32:	2300      	movs	r3, #0
}
 8001a34:	4618      	mov	r0, r3
 8001a36:	3714      	adds	r7, #20
 8001a38:	46bd      	mov	sp, r7
 8001a3a:	bc80      	pop	{r7}
 8001a3c:	4770      	bx	lr
 8001a3e:	bf00      	nop
 8001a40:	40012c00 	.word	0x40012c00
 8001a44:	40000400 	.word	0x40000400

08001a48 <HAL_TIMEx_CommutCallback>:
  * @brief  Hall commutation changed callback in non-blocking mode
  * @param  htim TIM handle
  * @retval None
  */
__weak void HAL_TIMEx_CommutCallback(TIM_HandleTypeDef *htim)
{
 8001a48:	b480      	push	{r7}
 8001a4a:	b083      	sub	sp, #12
 8001a4c:	af00      	add	r7, sp, #0
 8001a4e:	6078      	str	r0, [r7, #4]
  UNUSED(htim);

  /* NOTE : This function should not be modified, when the callback is needed,
            the HAL_TIMEx_CommutCallback could be implemented in the user file
   */
}
 8001a50:	bf00      	nop
 8001a52:	370c      	adds	r7, #12
 8001a54:	46bd      	mov	sp, r7
 8001a56:	bc80      	pop	{r7}
 8001a58:	4770      	bx	lr

08001a5a <HAL_TIMEx_BreakCallback>:
  * @brief  Hall Break detection callback in non-blocking mode
  * @param  htim TIM handle
  * @retval None
  */
__weak void HAL_TIMEx_BreakCallback(TIM_HandleTypeDef *htim)
{
 8001a5a:	b480      	push	{r7}
 8001a5c:	b083      	sub	sp, #12
 8001a5e:	af00      	add	r7, sp, #0
 8001a60:	6078      	str	r0, [r7, #4]
  UNUSED(htim);

  /* NOTE : This function should not be modified, when the callback is needed,
            the HAL_TIMEx_BreakCallback could be implemented in the user file
   */
}
 8001a62:	bf00      	nop
 8001a64:	370c      	adds	r7, #12
 8001a66:	46bd      	mov	sp, r7
 8001a68:	bc80      	pop	{r7}
 8001a6a:	4770      	bx	lr

08001a6c <__libc_init_array>:
 8001a6c:	b570      	push	{r4, r5, r6, lr}
 8001a6e:	2600      	movs	r6, #0
 8001a70:	4d0c      	ldr	r5, [pc, #48]	; (8001aa4 <__libc_init_array+0x38>)
 8001a72:	4c0d      	ldr	r4, [pc, #52]	; (8001aa8 <__libc_init_array+0x3c>)
 8001a74:	1b64      	subs	r4, r4, r5
 8001a76:	10a4      	asrs	r4, r4, #2
 8001a78:	42a6      	cmp	r6, r4
 8001a7a:	d109      	bne.n	8001a90 <__libc_init_array+0x24>
 8001a7c:	f000 f822 	bl	8001ac4 <_init>
 8001a80:	2600      	movs	r6, #0
 8001a82:	4d0a      	ldr	r5, [pc, #40]	; (8001aac <__libc_init_array+0x40>)
 8001a84:	4c0a      	ldr	r4, [pc, #40]	; (8001ab0 <__libc_init_array+0x44>)
 8001a86:	1b64      	subs	r4, r4, r5
 8001a88:	10a4      	asrs	r4, r4, #2
 8001a8a:	42a6      	cmp	r6, r4
 8001a8c:	d105      	bne.n	8001a9a <__libc_init_array+0x2e>
 8001a8e:	bd70      	pop	{r4, r5, r6, pc}
 8001a90:	f855 3b04 	ldr.w	r3, [r5], #4
 8001a94:	4798      	blx	r3
 8001a96:	3601      	adds	r6, #1
 8001a98:	e7ee      	b.n	8001a78 <__libc_init_array+0xc>
 8001a9a:	f855 3b04 	ldr.w	r3, [r5], #4
 8001a9e:	4798      	blx	r3
 8001aa0:	3601      	adds	r6, #1
 8001aa2:	e7f2      	b.n	8001a8a <__libc_init_array+0x1e>
 8001aa4:	08001b00 	.word	0x08001b00
 8001aa8:	08001b00 	.word	0x08001b00
 8001aac:	08001b00 	.word	0x08001b00
 8001ab0:	08001b04 	.word	0x08001b04

08001ab4 <memset>:
 8001ab4:	4603      	mov	r3, r0
 8001ab6:	4402      	add	r2, r0
 8001ab8:	4293      	cmp	r3, r2
 8001aba:	d100      	bne.n	8001abe <memset+0xa>
 8001abc:	4770      	bx	lr
 8001abe:	f803 1b01 	strb.w	r1, [r3], #1
 8001ac2:	e7f9      	b.n	8001ab8 <memset+0x4>

08001ac4 <_init>:
 8001ac4:	b5f8      	push	{r3, r4, r5, r6, r7, lr}
 8001ac6:	bf00      	nop
 8001ac8:	bcf8      	pop	{r3, r4, r5, r6, r7}
 8001aca:	bc08      	pop	{r3}
 8001acc:	469e      	mov	lr, r3
 8001ace:	4770      	bx	lr

08001ad0 <_fini>:
 8001ad0:	b5f8      	push	{r3, r4, r5, r6, r7, lr}
 8001ad2:	bf00      	nop
 8001ad4:	bcf8      	pop	{r3, r4, r5, r6, r7}
 8001ad6:	bc08      	pop	{r3}
 8001ad8:	469e      	mov	lr, r3
 8001ada:	4770      	bx	lr
